(lp0
F0.8736
aF0.7939
aF0.7288
aF0.6566
aF0.6026
aF0.5556
aF0.5199
aF0.4905
aF0.4702
aF0.4483
aF0.4388
aF0.4175
aF0.4002
aF0.3887
aF0.3773
aF0.3677
aF0.3561
aF0.3766
aF0.3429
aF0.355
aF0.3309
aF0.3432
aF0.3186
aF0.3235
aF0.3004
aF0.3135
aF0.2922
aF0.3035
aF0.2852
aF0.2983
aF0.2673
aF0.2891
aF0.2977
aF0.276
aF0.2842
aF0.283
aF0.2643
aF0.2667
aF0.2694
aF0.2555
aF0.2594
aF0.2562
aF0.2527
aF0.2545
aF0.255
aF0.2462
aF0.2408
aF0.2456
aF0.2341
aF0.2429
aF0.2442
aF0.2334
aF0.234
aF0.2304
aF0.2288
aF0.2199
aF0.2267
aF0.2276
aF0.2275
aF0.2313
aF0.2194
aF0.2253
aF0.2163
aF0.2203
aF0.2113
aF0.2103
aF0.2126
aF0.2056
aF0.2094
aF0.206
aF0.2072
aF0.2086
aF0.1944
aF0.2132
aF0.2085
aF0.1989
aF0.1937
aF0.2045
aF0.2009
aF0.2451
aF0.1982
aF0.2052
aF0.201
aF0.237
aF0.193
aF0.2021
aF0.189
aF0.2237
aF0.1901
aF0.196
aF0.1844
aF0.2227
aF0.1855
aF0.1981
aF0.187
aF0.2166
aF0.1816
aF0.1882
aF0.1825
aF0.2127
aF0.1801
aF0.1856
aF0.1812
aF0.2042
aF0.1855
aF0.178
aF0.1797
aF0.2122
aF0.1794
aF0.1794
aF0.1751
aF0.2
aF0.1693
aF0.1746
aF0.1796
aF0.1952
aF0.1692
aF0.1721
aF0.1705
aF0.1923
aF0.1683
aF0.1719
aF0.1778
aF0.1883
aF0.1695
aF0.1736
aF0.167
aF0.1909
aF0.1636
aF0.1673
aF0.1605
aF0.192
aF0.1585
aF0.1647
aF0.1663
aF0.184
aF0.1591
aF0.1665
aF0.1596
aF0.1816
aF0.1518
aF0.1611
aF0.161
aF0.1736
aF0.1488
aF0.1732
aF0.1603
aF0.17
aF0.1619
aF0.1592
aF0.1562
aF0.1769
aF0.1572
aF0.1608
aF0.1537
aF0.1748
aF0.1494
aF0.1599
aF0.1515
aF0.1691
aF0.1474
aF0.1521
aF0.1504
aF0.1629
aF0.1508
aF0.1507
aF0.139
aF0.1481
aF0.1659
aF0.2069
aF0.1548
aF0.1469
aF0.1545
aF0.1602
aF0.1922
aF0.1503
aF0.1447
aF0.1525
aF0.1553
aF0.1841
aF0.1481
aF0.1465
aF0.1406
aF0.1651
aF0.1815
aF0.1494
aF0.1507
aF0.1401
aF0.159
aF0.1764
aF0.1435
aF0.1473
aF0.1443
aF0.1569
aF0.1725
aF0.14
aF0.148
aF0.1388
aF0.1587
aF0.1649
aF0.1425
aF0.1512
aF0.1404
aF0.1532
aF0.1653
aF0.1407
aF0.1412
aF0.1487
aF0.1512
aF0.1618
aF0.1399
aF0.1449
aF0.1414
aF0.1522
aF0.1612
aF0.1423
aF0.1374
aF0.1348
aF0.1488
aF0.1555
aF0.1339
aF0.1398
aF0.1418
aF0.1475
aF0.1592
aF0.1414
aF0.1372
aF0.1335
aF0.1491
aF0.1644
aF0.1404
aF0.1375
aF0.1345
aF0.1448
aF0.1491
aF0.133
aF0.1399
aF0.1389
aF0.1468
aF0.1502
aF0.1335
aF0.1341
aF0.1344
aF0.138
aF0.148
aF0.1302
aF0.1298
aF0.1244
aF0.142
aF0.1517
aF0.135
aF0.1331
aF0.134
aF0.1379
aF0.1466
aF0.1288
aF0.1246
aF0.1268
aF0.1403
aF0.1432
aF0.1271
aF0.1298
aF0.1309
aF0.1345
aF0.1372
aF0.1354
aF0.1329
aF0.1318
aF0.1367
aF0.1362
aF0.1287
aF0.1332
aF0.1312
aF0.1343
aF0.1444
aF0.1295
aF0.1252
aF0.1306
aF0.1358
aF0.1359
aF0.1266
aF0.1309
aF0.1246
aF0.1346
aF0.1335
aF0.1268
aF0.1252
aF0.1301
aF0.1329
aF0.136
aF0.1343
aF0.1288
aF0.1255
aF0.129
aF0.1343
aF0.1264
aF0.1237
aF0.1239
aF0.1302
aF0.1292
aF0.1204
aF0.1272
aF0.1205
aF0.1263
aF0.1337
aF0.1225
aF0.1245
aF0.1317
aF0.1281
aF0.1322
aF0.1218
aF0.1212
aF0.1172
aF0.1322
aF0.1246
aF0.123
aF0.1252
aF0.1163
aF0.1296
aF0.1338
aF0.1225
aF0.123
aF0.1191
aF0.1295
aF0.1236
aF0.123
aF0.1281
aF0.1247
aF0.127
aF0.1299
aF0.1196
aF0.1242
aF0.1184
aF0.1283
aF0.1325
aF0.121
aF0.1168
aF0.1199
aF0.1263
aF0.1229
aF0.1177
aF0.122
aF0.1135
aF0.1208
aF0.1247
aF0.1112
aF0.1184
aF0.11
aF0.1308
aF0.122
aF0.1137
aF0.1153
aF0.1198
aF0.1262
aF0.1219
aF0.117
aF0.1166
aF0.1186
aF0.1266
aF0.1188
aF0.1172
aF0.1176
aF0.1124
aF0.1266
aF0.1191
aF0.1143
aF0.1135
aF0.1054
aF0.1208
aF0.1177
aF0.1146
aF0.1195
aF0.109
aF0.1233
aF0.1168
aF0.1103
aF0.1198
aF0.114
aF0.121
aF0.1157
aF0.1175
aF0.1137
aF0.1126
aF0.1202
aF0.1156
aF0.11
aF0.1153
aF0.1091
aF0.1207
aF0.1149
aF0.1157
aF0.1191
aF0.1156
aF0.1193
aF0.1166
aF0.1145
aF0.1165
aF0.1087
aF0.1178
aF0.1171
aF0.1115
aF0.1091
aF0.1121
aF0.1189
aF0.1092
aF0.1184
aF0.1086
aF0.1125
aF0.1233
aF0.1166
aF0.1094
aF0.1167
aF0.1063
aF0.1135
aF0.1205
aF0.1163
aF0.1129
aF0.1097
aF0.1158
aF0.1129
aF0.1111
aF0.113
aF0.1082
aF0.1163
aF0.1179
aF0.1088
aF0.1141
aF0.1099
aF0.1176
aF0.1111
aF0.1134
aF0.1073
aF0.1085
aF0.1153
aF0.1107
aF0.1119
aF0.1136
aF0.1067
aF0.1184
aF0.1109
aF0.1057
aF0.113
aF0.1066
aF0.1161
aF0.1112
aF0.1125
aF0.09705
aF0.0869
aF0.09035
aF0.0833
aF0.0837
aF0.0851
aF0.0774
aF0.08485
aF0.08265
aF0.0813
aF0.08315
aF0.079
aF0.0812
aF0.07915
aF0.0775
aF0.07905
aF0.0776
aF0.07985
aF0.0786
aF0.07855
aF0.0776
aF0.07475
aF0.08025
aF0.07415
aF0.07665
aF0.0744
aF0.06995
aF0.0833
aF0.0766
aF0.0759
aF0.08025
aF0.07235
aF0.0796
aF0.0735
aF0.0756
aF0.07645
aF0.0683
aF0.0792
aF0.0723
aF0.07765
aF0.07295
aF0.07315
aF0.0765
aF0.07465
aF0.07425
aF0.07345
aF0.0704
aF0.07705
aF0.07165
aF0.0723
aF0.0705
aF0.0677
aF0.0774
aF0.07395
aF0.07105
aF0.0738
aF0.06725
aF0.07645
aF0.071
aF0.0712
aF0.071
aF0.0678
aF0.07395
aF0.0683
aF0.06985
aF0.0691
aF0.06545
aF0.07285
aF0.06995
aF0.0701
aF0.07095
aF0.06755
aF0.07195
aF0.0702
aF0.06845
aF0.0708
aF0.06435
aF0.07165
aF0.0687
aF0.07065
aF0.07
aF0.0663
aF0.07605
aF0.07
aF0.0705
aF0.07075
aF0.0627
aF0.07095
aF0.0712
aF0.0668
aF0.06915
aF0.06605
aF0.0732
aF0.0723
aF0.07095
aF0.0682
aF0.06505
aF0.0719
aF0.0656
aF0.0685
aF0.0715
aF0.0652
aF0.0727
aF0.0659
aF0.06935
aF0.06735
aF0.0593
aF0.0706
aF0.0683
aF0.0666
aF0.06795
aF0.0601
aF0.0723
aF0.06685
aF0.06695
aF0.06705
aF0.0609
aF0.07115
aF0.0666
aF0.0678
aF0.06825
aF0.06285
aF0.06965
aF0.0681
aF0.06585
aF0.06285
aF0.06415
aF0.0691
aF0.06415
aF0.06775
aF0.06355
aF0.06475
aF0.07045
aF0.06375
aF0.0628
aF0.06415
aF0.0603
aF0.06745
aF0.06705
aF0.0637
aF0.0664
aF0.06375
aF0.0701
aF0.06995
aF0.0625
aF0.06355
aF0.05925
aF0.06545
aF0.0642
aF0.06255
aF0.06505
aF0.06465
aF0.0676
aF0.0622
aF0.063
aF0.06555
aF0.06135
aF0.06905
aF0.0678
aF0.06215
aF0.064
aF0.0607
aF0.0665
aF0.0627
aF0.06335
aF0.0634
aF0.05785
aF0.06815
aF0.0649
aF0.0614
aF0.06685
aF0.06025
aF0.0648
aF0.06285
aF0.0661
aF0.0629
aF0.0588
aF0.0624
aF0.0576
aF0.06175
aF0.0599
aF0.05685
aF0.0647
aF0.0614
aF0.0598
aF0.0588
aF0.05635
aF0.06355
aF0.06355
aF0.0615
aF0.06205
aF0.05625
aF0.0629
aF0.0585
aF0.05745
aF0.0574
aF0.0563
aF0.06245
aF0.0632
aF0.0673
aF0.0678
aF0.0657
aF0.0696
aF0.065
aF0.067
aF0.068
aF0.0622
aF0.068
aF0.0677
aF0.0684
aF0.0675
aF0.0613
aF0.0718
aF0.07
aF0.0668
aF0.0674
aF0.0682
aF0.0715
aF0.0658
aF0.0651
aF0.0658
aF0.0576
aF0.0701
aF0.0687
aF0.0702
aF0.0678
aF0.0607
aF0.0721
aF0.0615
aF0.064
aF0.0661
aF0.0596
aF0.0711
aF0.0679
aF0.0664
aF0.0695
aF0.0597
aF0.0697
aF0.0676
aF0.0622
aF0.0659
aF0.0625
aF0.0687
aF0.0657
aF0.0681
aF0.0668
aF0.0648
aF0.0709
aF0.0674
aF0.0657
aF0.0646
aF0.0625
aF0.0724
aF0.0681
aF0.0665
aF0.064
aF0.0624
aF0.0674
aF0.0678
aF0.0683
aF0.0657
aF0.0623
aF0.0683
aF0.0678
aF0.0676
aF0.0633
aF0.0586
aF0.0718
aF0.0685
aF0.0644
aF0.067
aF0.0626
aF0.068
aF0.0667
aF0.0667
aF0.0689
aF0.0605
aF0.0692
aF0.0702
aF0.0651
aF0.0641
aF0.0625
aF0.0676
aF0.0676
aF0.0627
aF0.0626
aF0.0652
aF0.0676
aF0.0655
aF0.0642
aF0.0627
aF0.0616
aF0.0673
aF0.0656
aF0.0665
aF0.0668
aF0.0623
aF0.0657
aF0.0657
aF0.0671
aF0.0642
aF0.0599
aF0.0693
aF0.0645
aF0.0641
aF0.0612
aF0.0571
aF0.0668
aF0.0635
aF0.0645
aF0.064
aF0.0616
aF0.0681
aF0.0658
aF0.0651
aF0.0651
aF0.059
aF0.0651
aF0.0618
aF0.0629
aF0.0687
aF0.0589
aF0.0676
aF0.0659
aF0.0647
aF0.0636
aF0.0622
aF0.0623
aF0.0672
a.