(lp0
F0.8830515297906603
aF0.8117854001759015
aF0.7536829375549692
aF0.6942365269461078
aF0.6439005352363961
aF0.600328947368421
aF0.564559843885516
aF0.5320901994796184
aF0.5019911504424779
aF0.4865568083261058
aF0.47598655680832613
aF0.4531650983746792
aF0.429957805907173
aF0.4110472679965308
aF0.4017857142857143
aF0.3944629475437136
aF0.375
aF0.4023793260473588
aF0.3706407137064071
aF0.37989396411092985
aF0.35298174872665533
aF0.3584492818671454
aF0.3384106678230703
aF0.34894870609981515
aF0.32101769911504424
aF0.345578743545611
aF0.3181665170556553
aF0.32212360992301114
aF0.30720986038394416
aF0.320305724197745
aF0.2905590717299578
aF0.31648809523809524
aF0.31780055917986955
aF0.29688836612489305
aF0.29326077396657874
aF0.2918388429752066
aF0.2724121996303142
aF0.29114629794826047
aF0.28217713787085513
aF0.27512093227792433
aF0.28274067649609713
aF0.2674802110817942
aF0.2638016157989228
aF0.2657198612315698
aF0.2704616413916146
aF0.26043459552495696
aF0.26172547332185886
aF0.25680485762144056
aF0.24284475281873374
aF0.25016490765171506
aF0.25306146025878
aF0.24409009812667262
aF0.24823542805100182
aF0.24102363960749332
aF0.23568900915903415
aF0.24077868852459017
aF0.243619109947644
aF0.2338023560209424
aF0.2281304537521815
aF0.23459915611814347
aF0.23287511649580614
aF0.23647469458987783
aF0.22522283531409168
aF0.22839002795899346
aF0.22828715919085313
aF0.2198641765704584
aF0.21827249575551783
aF0.22531882145998242
aF0.2176358234295416
aF0.2151305057096248
aF0.2241703539823009
aF0.2167149866190901
aF0.21442395264116576
aF0.2260996409335727
aF0.22466216216216217
aF0.2092516069788797
aF0.20490237691001698
aF0.2165447504302926
aF0.2116760624457936
aF0.2500553097345133
aF0.19958677685950413
aF0.21609972041006523
aF0.20605646630236793
aF0.2499442462087422
aF0.2014006791171477
aF0.21351908065915004
aF0.20944570135746607
aF0.2386460101867572
aF0.20135746606334842
aF0.20712025316455696
aF0.20099043715846995
aF0.22388659320477503
aF0.19248699045967044
aF0.204804189435337
aF0.1852283317800559
aF0.22533185840707964
aF0.19103456014362658
aF0.1954683434518647
aF0.1906930485762144
aF0.22669683257918552
aF0.18289946140035906
aF0.20506059245960503
aF0.18995936698032506
aF0.22583792470156105
aF0.18859750462107208
aF0.18920765027322403
aF0.18899219467401285
aF0.21066712204007285
aF0.19000892060660124
aF0.18233289357959542
aF0.17779705117085862
aF0.2088495575221239
aF0.18505942275042445
aF0.18573567151411463
aF0.18044077134986225
aF0.20033112582781457
aF0.18038922155688622
aF0.18819897483690587
aF0.18139140271493212
aF0.20063291139240505
aF0.17332580115036977
aF0.1822632058287796
aF0.18130165289256198
aF0.1924510717614166
aF0.17320936639118456
aF0.1813670829616414
aF0.17313898450946644
aF0.19644415357766143
aF0.1730268863833478
aF0.17527654867256637
aF0.17346225535880708
aF0.1880656108597285
aF0.17105263157894737
aF0.16856540084388186
aF0.1798695246971109
aF0.19326654240447344
aF0.1693698347107438
aF0.17419284467713786
aF0.17155892700087952
aF0.1820477502295684
aF0.1676912568306011
aF0.17126353039134054
aF0.16606628242074928
aF0.1857002617801047
aF0.1672224612736661
aF0.17527548209366392
aF0.16873396065012833
aF0.17526371308016878
aF0.16302408563782336
aF0.16563301967493585
aF0.1610749551166966
aF0.17405335628227195
aF0.16100483729111698
aF0.16444120287253142
aF0.16227865796831314
aF0.18479827089337175
aF0.1598890942698706
aF0.16057091882247992
aF0.15858378870673953
aF0.17638363292336803
aF0.1532788624787776
aF0.1548076923076923
aF0.1554054054054054
aF0.1775137741046832
aF0.15452488687782806
aF0.16283185840707964
aF0.14886262265834077
aF0.15291666666666667
aF0.174953095684803
aF0.19922566371681416
aF0.15611061552185548
aF0.16084968777876896
aF0.1512325479930192
aF0.17036199095022625
aF0.19483595194085027
aF0.15800045913682279
aF0.15783898305084745
aF0.15371621621621623
aF0.16001734605377277
aF0.19285236396074934
aF0.15679641965029142
aF0.15268526228143214
aF0.15761343804537523
aF0.16595425138632164
aF0.1825657894736842
aF0.1504396984924623
aF0.16131221719457015
aF0.1475140712945591
aF0.16393979057591623
aF0.17172995780590716
aF0.15442850637522768
aF0.15335743801652893
aF0.14833931777378814
aF0.1585014409221902
aF0.1779208542713568
aF0.14873204667863554
aF0.14850567190226877
aF0.13917975567190227
aF0.16487556561085973
aF0.17097513089005237
aF0.14703856749311295
aF0.15101549413735343
aF0.1515610438024231
aF0.160071189279732
aF0.16846640488656195
aF0.15380942275042445
aF0.1486455463728191
aF0.14822710951526033
aF0.15398626144879268
aF0.16046831955922866
aF0.13986759425493717
aF0.15121155638397019
aF0.15163412563667233
aF0.15891600703605982
aF0.16698260481712757
aF0.14841565703634668
aF0.14983031674208144
aF0.1431260757314974
aF0.16186036426712924
aF0.16220857618651124
aF0.1459841628959276
aF0.14895533141210374
aF0.14535013380909903
aF0.1531108597285068
aF0.15560506566604126
aF0.1547566371681416
aF0.14681050656660413
aF0.1351656626506024
aF0.1609832185886403
aF0.17032068062827224
aF0.13979130808950085
aF0.14373327386262266
aF0.13779843893480256
aF0.15563285457809695
aF0.1555955497382199
aF0.145778364116095
aF0.1529255319148936
aF0.14276500938086303
aF0.15503393665158371
aF0.15648105360443623
aF0.14076526032315978
aF0.1427502138579983
aF0.13448612315698177
aF0.14513574660633485
aF0.15790929203539822
aF0.1363344739093242
aF0.13893104943625326
aF0.14099499089253187
aF0.1547933157431838
aF0.16419305189094108
aF0.13863122171945702
aF0.13973752151462995
aF0.15608168761220825
aF0.14575515947467166
aF0.15248075278015397
aF0.14217931937172776
aF0.13645287958115182
aF0.13486842105263158
aF0.15038696060037524
aF0.15008920606601248
aF0.1337672117039587
aF0.14655172413793102
aF0.14620736086175942
aF0.14207024432809773
aF0.14884425493716338
aF0.13721008028545942
aF0.13451327433628318
aF0.13539823008849558
aF0.1507690541781451
aF0.14027149321266968
aF0.13188705234159778
aF0.14033641160949867
aF0.1408811475409836
aF0.13888274336283185
aF0.1419246765249538
aF0.13837235996326905
aF0.14049195837275308
aF0.13051782682512733
aF0.14213800904977375
aF0.13661044362292052
aF0.12751283147989734
aF0.13291211293260474
aF0.13386485280999108
aF0.14277970511708588
aF0.14475264169068203
aF0.1270087235996327
aF0.13543621013133209
aF0.12689722463139635
aF0.1423290203327172
aF0.1375112208258528
aF0.13886887608069165
aF0.13290929203539822
aF0.13274977698483498
aF0.13431328545780968
aF0.13464991023339318
aF0.13640704584040747
aF0.13866120218579234
aF0.13570472792149865
aF0.14039138082673702
aF0.14309366130558185
aF0.13028007346189163
aF0.13426141658900279
aF0.1308075221238938
aF0.14275505716798592
aF0.14222396768402154
aF0.13258251561106155
aF0.14016143106457243
aF0.1303374655647383
aF0.13728902953586497
aF0.13346525945470536
aF0.12881375227686703
aF0.1356868395773295
aF0.1291815343443354
aF0.13524590163934427
aF0.13531445138269402
aF0.1278304066543438
aF0.1360392506690455
aF0.1273636763412489
aF0.14467493584260052
aF0.13180309734513274
aF0.12512007684918347
aF0.12986311239193082
aF0.12727686703096538
aF0.13105203619909503
aF0.14259086672879775
aF0.13342440801457195
aF0.1417336802270577
aF0.12354776247848537
aF0.13690476190476192
aF0.13655287260616153
aF0.12649219467401285
aF0.13248048568950563
aF0.12444246208742195
aF0.14202488687782805
aF0.13173076923076923
aF0.12267857142857143
aF0.12656119900083265
aF0.12323008849557522
aF0.14007698887938408
aF0.13787912578055309
aF0.1184762348555452
aF0.12834522747546834
aF0.12396341463414634
aF0.12668312387791741
aF0.13365209471766848
aF0.1281192236598891
aF0.13504263913824058
aF0.12043718166383702
aF0.1379348795718109
aF0.1338690476190476
aF0.12434036939313985
aF0.12705984388551606
aF0.127007136485281
aF0.13472622478386168
aF0.1292573320719016
aF0.11856860158311346
aF0.12983834244080145
aF0.13133484162895928
aF0.14117375231053605
aF0.1284080914687775
aF0.12312158469945356
aF0.12789735099337748
aF0.1278187337380746
aF0.14200838769804286
aF0.1300174520069808
aF0.12583630686886707
aF0.12243532560214095
aF0.12024336283185841
aF0.13808837656099904
aF0.12726244343891402
aF0.11730851979345955
aF0.1310287610619469
aF0.12817698706099814
aF0.1302710843373494
aF0.12624172185430463
aF0.11930783242258652
aF0.12819793536804308
aF0.1270628902765388
aF0.13401495162708882
aF0.1274390243902439
aF0.12566042267050911
aF0.12081037649219467
aF0.11958828522920203
aF0.13624885215794308
aF0.12916666666666668
aF0.12087421944692239
aF0.12143175735950044
aF0.12164972273567468
aF0.13497453310696095
aF0.130217684021544
aF0.12237957181088314
aF0.12077380952380952
aF0.12043718166383702
aF0.1316574839302112
aF0.12340589270008795
aF0.12292414721723519
aF0.1229371097234612
aF0.11987704918032786
aF0.13579842931937172
aF0.11654761904761905
aF0.11995967741935484
aF0.1323037466547725
aF0.12462574850299402
aF0.121849173553719
aF0.12223451327433628
a.