(lp0
F0.8762
aF0.7736
aF0.7095
aF0.6616
aF0.6258
aF0.5903
aF0.5569
aF0.5362
aF0.5012
aF0.4927
aF0.4791
aF0.4438
aF0.4294
aF0.4188
aF0.3919
aF0.3806
aF0.3831
aF0.4045
aF0.3583
aF0.3761
aF0.3411
aF0.3433
aF0.3306
aF0.3336
aF0.3172
aF0.3282
aF0.3075
aF0.3057
aF0.2912
aF0.3082
aF0.2802
aF0.2927
aF0.2963
aF0.2833
aF0.293
aF0.2873
aF0.2659
aF0.2772
aF0.2758
aF0.2638
aF0.2631
aF0.2682
aF0.2539
aF0.2646
aF0.2592
aF0.2494
aF0.2565
aF0.2464
aF0.2462
aF0.2423
aF0.2446
aF0.2452
aF0.2484
aF0.2325
aF0.2365
aF0.2307
aF0.2338
aF0.2367
aF0.2305
aF0.2334
aF0.228
aF0.2321
aF0.2289
aF0.2231
aF0.2185
aF0.2189
aF0.214
aF0.2219
aF0.2178
aF0.2149
aF0.2192
aF0.2139
aF0.2027
aF0.218
aF0.2182
aF0.2132
aF0.1966
aF0.2048
aF0.2133
aF0.2441
aF0.2006
aF0.2021
aF0.2045
aF0.2346
aF0.1932
aF0.2088
aF0.1995
aF0.2238
aF0.1951
aF0.1997
aF0.1974
aF0.2275
aF0.1938
aF0.1956
aF0.187
aF0.2151
aF0.1857
aF0.1863
aF0.1918
aF0.2144
aF0.1867
aF0.1952
aF0.1842
aF0.2144
aF0.1819
aF0.1905
aF0.1794
aF0.2038
aF0.1862
aF0.1883
aF0.1753
aF0.1997
aF0.1799
aF0.1848
aF0.182
aF0.2008
aF0.1738
aF0.182
aF0.1768
aF0.1977
aF0.1742
aF0.1714
aF0.1852
aF0.1983
aF0.1759
aF0.1727
aF0.1775
aF0.192
aF0.1674
aF0.1781
aF0.1678
aF0.1858
aF0.1676
aF0.1714
aF0.1688
aF0.1831
aF0.1707
aF0.165
aF0.1711
aF0.1841
aF0.1649
aF0.1688
aF0.1592
aF0.1731
aF0.1629
aF0.169
aF0.166
aF0.1763
aF0.1616
aF0.1669
aF0.1558
aF0.1763
aF0.1689
aF0.1618
aF0.1578
aF0.1708
aF0.1638
aF0.1683
aF0.1567
aF0.1657
aF0.1504
aF0.1555
aF0.1571
aF0.1748
aF0.1562
aF0.159
aF0.1482
aF0.1491
aF0.1751
aF0.1983
aF0.159
aF0.153
aF0.1442
aF0.1654
aF0.1975
aF0.1601
aF0.159
aF0.1511
aF0.1644
aF0.1836
aF0.1543
aF0.147
aF0.1509
aF0.1714
aF0.1843
aF0.1482
aF0.1517
aF0.1464
aF0.1667
aF0.1755
aF0.1472
aF0.1505
aF0.1498
aF0.1653
aF0.1768
aF0.1526
aF0.1582
aF0.148
aF0.1599
aF0.1704
aF0.1444
aF0.1512
aF0.1575
aF0.1603
aF0.1626
aF0.1459
aF0.1483
aF0.15
aF0.165
aF0.1668
aF0.146
aF0.146
aF0.1457
aF0.1537
aF0.1606
aF0.1539
aF0.1456
aF0.1409
aF0.1575
aF0.1564
aF0.1455
aF0.1453
aF0.1434
aF0.1501
aF0.158
aF0.1384
aF0.1406
aF0.1455
aF0.1534
aF0.1608
aF0.1438
aF0.1539
aF0.1385
aF0.1505
aF0.1562
aF0.1446
aF0.1391
aF0.1451
aF0.1571
aF0.1492
aF0.1431
aF0.1447
aF0.1337
aF0.1448
aF0.1595
aF0.1431
aF0.143
aF0.1364
aF0.1459
aF0.1542
aF0.1449
aF0.1338
aF0.1349
aF0.1444
aF0.1482
aF0.1428
aF0.1371
aF0.1304
aF0.1473
aF0.1461
aF0.135
aF0.1399
aF0.1482
aF0.1455
aF0.1476
aF0.1356
aF0.139
aF0.1369
aF0.1452
aF0.1506
aF0.1353
aF0.1385
aF0.1345
aF0.131
aF0.1377
aF0.1355
aF0.1386
aF0.1402
aF0.1469
aF0.144
aF0.1396
aF0.141
aF0.1373
aF0.1412
aF0.1461
aF0.1369
aF0.1405
aF0.13
aF0.1402
aF0.1474
aF0.1415
aF0.1383
aF0.1331
aF0.1396
aF0.1386
aF0.1329
aF0.1322
aF0.1312
aF0.1346
aF0.1416
aF0.1369
aF0.1359
aF0.1305
aF0.1365
aF0.1389
aF0.131
aF0.1371
aF0.1309
aF0.1397
aF0.1393
aF0.1321
aF0.1329
aF0.1286
aF0.1324
aF0.1328
aF0.1379
aF0.1388
aF0.1268
aF0.141
aF0.1333
aF0.1328
aF0.1299
aF0.128
aF0.1419
aF0.1313
aF0.1301
aF0.1426
aF0.1294
aF0.138
aF0.1417
aF0.1314
aF0.1316
aF0.1256
aF0.1395
aF0.1384
aF0.1326
aF0.1308
aF0.1278
aF0.1337
aF0.1326
aF0.1259
aF0.1298
aF0.1315
aF0.1326
aF0.1322
aF0.1215
aF0.1283
aF0.131
aF0.1367
aF0.1342
aF0.1224
aF0.125
aF0.1256
aF0.1354
aF0.1459
aF0.1255
aF0.1315
aF0.1358
aF0.1416
aF0.1288
aF0.1319
aF0.1269
aF0.1295
aF0.1331
aF0.1299
aF0.1276
aF0.1313
aF0.1213
aF0.134
aF0.1306
aF0.124
aF0.1297
aF0.1293
aF0.1346
aF0.1373
aF0.1273
aF0.124
aF0.1228
aF0.1294
aF0.1251
aF0.1277
aF0.1239
aF0.1286
aF0.1283
aF0.1243
aF0.1266
aF0.1258
aF0.1237
aF0.1263
aF0.1303
aF0.1248
aF0.1212
aF0.1205
aF0.1366
aF0.1248
aF0.1232
aF0.1264
aF0.1179
aF0.1361
aF0.1188
aF0.1229
aF0.119
aF0.1259
aF0.1318
aF0.1285
aF0.1269
aF0.1284
aF0.1191
aF0.1258
aF0.1285
aF0.113
aF0.1206
aF0.1149
aF0.1294
aF0.1216
aF0.1177
aF0.1247
aF0.1146
aF0.1229
aF0.1329
aF0.1169
aF0.1224
aF0.1207
aF0.1288
aF0.1237
aF0.1253
aF0.1244
aF0.1245
aF0.1206
aF0.1228
aF0.1181
aF0.1277
aF0.1204
aF0.1281
aF0.1209
aF0.1277
aF0.1207
aF0.1199
aF0.1323
aF0.117
aF0.115
aF0.1165
aF0.1232
aF0.1212
aF0.1199
aF0.1208
aF0.1275
aF0.112
aF0.1224
aF0.12
aF0.1226
aF0.1207
aF0.1167
aF0.1276
aF0.1245
aF0.1211
aF0.1155
aF0.1192
aF0.1249
aF0.114
aF0.119
aF0.124
aF0.1418
aF0.1304
aF0.1177
aF0.1217
aF0.1195
aF0.1174
aF0.1216
aF0.1144
aF0.1185
aF0.1178
aF0.1178
aF0.1262
aF0.1176
aF0.1159
aF0.1166
aF0.1177
aF0.1198
aF0.1226
aF0.1225
aF0.117
aF0.12
aF0.1287
aF0.1199
aF0.1181
aF0.1185
aF0.1198
aF0.1249
aF0.1267
aF0.12
aF0.1239
aF0.1111
aF0.1245
aF0.1197
aF0.1228
aF0.0976
aF0.0944
aF0.0953
aF0.0892
aF0.0902
aF0.0888
aF0.0823
aF0.09
aF0.0777
aF0.0888
aF0.0822
aF0.0802
aF0.0834
aF0.0787
aF0.0835
aF0.0797
aF0.078
aF0.0829
aF0.0773
aF0.0834
aF0.0846
aF0.0776
aF0.0828
aF0.0764
aF0.0835
aF0.0819
aF0.0766
aF0.0777
aF0.0778
aF0.078
aF0.0775
aF0.0768
aF0.0808
aF0.074
aF0.0794
aF0.0771
aF0.0732
aF0.0798
aF0.0788
aF0.0731
aF0.0806
aF0.0728
aF0.0727
aF0.0761
aF0.0804
aF0.0719
aF0.0712
aF0.073
aF0.0729
aF0.0755
aF0.0749
aF0.0701
aF0.071
aF0.0679
aF0.0728
aF0.0736
aF0.0686
aF0.0735
aF0.0694
aF0.0748
aF0.0729
aF0.0673
aF0.075
aF0.0682
aF0.0715
aF0.0716
aF0.0688
aF0.0711
aF0.0725
aF0.0717
aF0.0716
aF0.0688
aF0.0707
aF0.071
aF0.0736
aF0.0673
aF0.0675
aF0.0711
aF0.0665
aF0.0754
aF0.0709
aF0.0656
aF0.0717
aF0.0636
aF0.0714
aF0.0706
aF0.0702
aF0.0702
aF0.0689
aF0.0665
aF0.0726
aF0.0673
aF0.0706
aF0.0638
aF0.0713
aF0.0733
aF0.0683
aF0.0669
aF0.0677
aF0.0701
aF0.0716
aF0.0694
aF0.0732
aF0.0657
aF0.0694
aF0.0683
aF0.0642
aF0.0701
aF0.0684
aF0.0697
aF0.0696
aF0.0631
aF0.0717
aF0.0653
aF0.0689
aF0.0702
aF0.0651
aF0.0694
aF0.0716
aF0.0655
aF0.0756
aF0.0674
aF0.07
aF0.0651
aF0.0715
aF0.0691
aF0.065
aF0.066
aF0.0663
aF0.0679
aF0.0701
aF0.0658
aF0.0678
aF0.0643
aF0.0689
aF0.0671
aF0.0616
aF0.0674
aF0.0672
aF0.0693
aF0.0704
aF0.0636
aF0.0721
aF0.0687
aF0.0704
aF0.0686
aF0.0648
aF0.0719
aF0.0688
a.