(lp0
F0.836
aF0.7488
aF0.6974
aF0.657
aF0.6329
aF0.6098
aF0.5827
aF0.5756
aF0.5578
aF0.5211
aF0.5084
aF0.5034
aF0.4885
aF0.463
aF0.47
aF0.4566
aF0.434
aF0.4583
aF0.4351
aF0.4398
aF0.4174
aF0.4254
aF0.4076
aF0.4198
aF0.3895
aF0.4084
aF0.3872
aF0.383
aF0.3797
aF0.3836
aF0.37
aF0.38
aF0.3794
aF0.3499
aF0.3703
aF0.355
aF0.3555
aF0.3537
aF0.3516
aF0.331
aF0.3567
aF0.339
aF0.3299
aF0.3399
aF0.3371
aF0.3237
aF0.325
aF0.3309
aF0.3243
aF0.3313
aF0.3247
aF0.3119
aF0.3216
aF0.3119
aF0.3034
aF0.3118
aF0.3117
aF0.3019
aF0.3001
aF0.3049
aF0.3006
aF0.3115
aF0.3019
aF0.2922
aF0.2976
aF0.2962
aF0.2958
aF0.2952
aF0.291
aF0.2939
aF0.2898
aF0.286
aF0.2847
aF0.2878
aF0.2884
aF0.2752
aF0.2715
aF0.2997
aF0.2816
aF0.309
aF0.2783
aF0.2844
aF0.2792
aF0.3071
aF0.2801
aF0.2816
aF0.2729
aF0.2927
aF0.2678
aF0.2793
aF0.2662
aF0.2903
aF0.2613
aF0.2758
aF0.2703
aF0.2878
aF0.2693
aF0.2721
aF0.2669
aF0.2865
aF0.2647
aF0.2725
aF0.2619
aF0.2856
aF0.2605
aF0.266
aF0.2561
aF0.2795
aF0.2657
aF0.2577
aF0.2593
aF0.2706
aF0.2576
aF0.2645
aF0.258
aF0.2771
aF0.2472
aF0.2596
aF0.2545
aF0.2705
aF0.2557
aF0.2582
aF0.2525
aF0.2715
aF0.2512
aF0.2486
aF0.2528
aF0.2572
aF0.2451
aF0.2578
aF0.2466
aF0.2637
aF0.2458
aF0.2516
aF0.2504
aF0.2623
aF0.2403
aF0.2464
aF0.2407
aF0.2568
aF0.2456
aF0.244
aF0.2405
aF0.2619
aF0.2409
aF0.2508
aF0.2392
aF0.2508
aF0.2388
aF0.2484
aF0.2438
aF0.2438
aF0.2438
aF0.2385
aF0.2407
aF0.2538
aF0.2378
aF0.2396
aF0.234
aF0.2485
aF0.2318
aF0.2346
aF0.239
aF0.2553
aF0.2321
aF0.2353
aF0.2318
aF0.2355
aF0.2456
aF0.2636
aF0.2365
aF0.2395
aF0.2303
aF0.2433
aF0.2592
aF0.2287
aF0.2293
aF0.2282
aF0.246
aF0.2628
aF0.2386
aF0.2357
aF0.2332
aF0.2429
aF0.2572
aF0.2345
aF0.2364
aF0.2339
aF0.2429
aF0.2435
aF0.2318
aF0.229
aF0.2286
aF0.24
aF0.2423
aF0.229
aF0.2295
aF0.2268
aF0.2328
aF0.2484
aF0.2305
aF0.2325
aF0.2237
aF0.2351
aF0.2443
aF0.2317
aF0.2289
aF0.2336
aF0.2338
aF0.2444
aF0.2342
aF0.2342
aF0.2201
aF0.2343
aF0.2401
aF0.2312
aF0.2276
aF0.2257
aF0.2312
aF0.2369
aF0.2218
aF0.2285
aF0.2204
aF0.2304
aF0.2359
aF0.2292
aF0.2235
aF0.2251
aF0.2317
aF0.2357
aF0.2275
aF0.2296
aF0.2208
aF0.2372
aF0.2366
aF0.2184
aF0.2272
aF0.2221
aF0.2315
aF0.2369
aF0.2184
aF0.2204
aF0.2202
aF0.2308
aF0.2228
aF0.2196
aF0.223
aF0.2206
aF0.2259
aF0.232
aF0.2178
aF0.2239
aF0.2194
aF0.2306
aF0.2334
aF0.225
aF0.2236
aF0.2171
aF0.2282
aF0.2245
aF0.2255
aF0.2191
aF0.2192
aF0.2266
aF0.2279
aF0.2229
aF0.2244
aF0.2143
aF0.2338
aF0.2246
aF0.2175
aF0.2193
aF0.218
aF0.2285
aF0.2342
aF0.2181
aF0.2258
aF0.2192
aF0.2205
aF0.219
aF0.2149
aF0.2169
aF0.2151
aF0.2251
aF0.2215
aF0.2233
aF0.2165
aF0.2094
aF0.223
aF0.2193
aF0.2202
aF0.2145
aF0.2127
aF0.2224
aF0.2153
aF0.2158
aF0.2149
aF0.2111
aF0.2266
aF0.2213
aF0.2187
aF0.2154
aF0.2136
aF0.2217
aF0.2182
aF0.2144
aF0.2116
aF0.2106
aF0.224
aF0.2209
aF0.2131
aF0.2197
aF0.2105
aF0.2162
aF0.2165
aF0.2109
aF0.2131
aF0.2113
aF0.2211
aF0.2208
aF0.21
aF0.2111
aF0.2133
aF0.2253
aF0.2219
aF0.2123
aF0.2099
aF0.2104
aF0.219
aF0.2163
aF0.2064
aF0.2139
aF0.2097
aF0.2144
aF0.2154
aF0.2106
aF0.213
aF0.2111
aF0.2134
aF0.2111
aF0.2074
aF0.2111
aF0.2043
aF0.2147
aF0.2088
aF0.2149
aF0.2091
aF0.2045
aF0.2223
aF0.2114
aF0.2055
aF0.2136
aF0.2085
aF0.2165
aF0.2137
aF0.2067
aF0.208
aF0.2079
aF0.223
aF0.2206
aF0.2131
aF0.2174
aF0.2138
aF0.2096
aF0.2157
aF0.2126
aF0.2091
aF0.2051
aF0.2142
aF0.2118
aF0.2139
aF0.2095
aF0.2037
aF0.2084
aF0.2124
a.