(lp0
F0.8764
aF0.805
aF0.7644
aF0.7157
aF0.6847
aF0.6633
aF0.6343
aF0.6061
aF0.5868
aF0.5696
aF0.5365
aF0.5202
aF0.5006
aF0.4758
aF0.4666
aF0.4582
aF0.4207
aF0.4371
aF0.3988
aF0.41
aF0.3819
aF0.3881
aF0.3629
aF0.3709
aF0.3545
aF0.346
aF0.3286
aF0.3386
aF0.3187
aF0.3213
aF0.31
aF0.315
aF0.322
aF0.3017
aF0.2989
aF0.3055
aF0.2771
aF0.2926
aF0.2877
aF0.2803
aF0.2746
aF0.2775
aF0.2695
aF0.2663
aF0.2681
aF0.2556
aF0.2553
aF0.2529
aF0.2588
aF0.2567
aF0.2552
aF0.2466
aF0.2436
aF0.2414
aF0.239
aF0.2374
aF0.2365
aF0.2379
aF0.2314
aF0.234
aF0.2271
aF0.2233
aF0.2218
aF0.2192
aF0.2192
aF0.2173
aF0.2128
aF0.2182
aF0.21
aF0.2098
aF0.2123
aF0.2124
aF0.2126
aF0.2063
aF0.2034
aF0.2077
aF0.1877
aF0.2018
aF0.1959
aF0.2503
aF0.1956
aF0.1954
aF0.1949
aF0.2335
aF0.1864
aF0.1961
aF0.1929
aF0.2234
aF0.1906
aF0.1883
aF0.1875
aF0.2317
aF0.1855
aF0.1949
aF0.1817
aF0.2203
aF0.1821
aF0.1836
aF0.1785
aF0.2073
aF0.1762
aF0.1799
aF0.1757
aF0.2141
aF0.1751
aF0.1725
aF0.1714
aF0.1959
aF0.1702
aF0.1768
aF0.1719
aF0.1958
aF0.1699
aF0.1712
aF0.1702
aF0.1891
aF0.1683
aF0.1696
aF0.1692
aF0.1855
aF0.1664
aF0.1637
aF0.162
aF0.1819
aF0.166
aF0.1693
aF0.1607
aF0.1822
aF0.1578
aF0.1639
aF0.1577
aF0.1759
aF0.1577
aF0.1594
aF0.1569
aF0.1711
aF0.1595
aF0.1565
aF0.1476
aF0.1742
aF0.1485
aF0.1586
aF0.1556
aF0.1643
aF0.1482
aF0.1516
aF0.152
aF0.1637
aF0.1429
aF0.1507
aF0.1458
aF0.1588
aF0.1508
aF0.152
aF0.1412
aF0.161
aF0.1458
aF0.1508
aF0.1414
aF0.1597
aF0.1411
aF0.1372
aF0.143
aF0.1573
aF0.1372
aF0.1395
aF0.135
aF0.1415
aF0.1521
aF0.1961
aF0.1433
aF0.1362
aF0.1401
aF0.1528
aF0.1894
aF0.1379
aF0.1407
aF0.1443
aF0.1571
aF0.1751
aF0.1398
aF0.1341
aF0.1324
aF0.1505
aF0.1847
aF0.1402
aF0.1342
aF0.1368
aF0.1428
aF0.17
aF0.1354
aF0.1399
aF0.133
aF0.1431
aF0.163
aF0.1314
aF0.135
aF0.1341
aF0.1469
aF0.1667
aF0.1307
aF0.1295
aF0.1283
aF0.1382
aF0.1586
aF0.1366
aF0.1322
aF0.1283
aF0.1431
aF0.1637
aF0.1307
aF0.129
aF0.1227
aF0.1356
aF0.1569
aF0.1281
aF0.1293
aF0.1298
aF0.1364
aF0.154
aF0.1303
aF0.1272
aF0.1267
aF0.1383
aF0.1537
aF0.1249
aF0.1312
aF0.1208
aF0.1389
aF0.1455
aF0.1298
aF0.1245
aF0.1263
aF0.1392
aF0.1419
aF0.1228
aF0.1298
aF0.1212
aF0.1371
aF0.1404
aF0.1265
aF0.1239
aF0.1244
aF0.1303
aF0.1427
aF0.1237
aF0.125
aF0.1203
aF0.1367
aF0.1362
aF0.1222
aF0.1268
aF0.1222
aF0.1273
aF0.1355
aF0.1228
aF0.1243
aF0.1244
aF0.1225
aF0.1336
aF0.1207
aF0.1256
aF0.1187
aF0.1303
aF0.1325
aF0.1235
aF0.1252
aF0.116
aF0.1246
aF0.1234
aF0.1162
aF0.1183
aF0.1207
aF0.1289
aF0.1259
aF0.117
aF0.1128
aF0.1182
aF0.1262
aF0.1295
aF0.1164
aF0.1158
aF0.1204
aF0.1255
aF0.1257
aF0.1167
aF0.115
aF0.1169
aF0.1203
aF0.1217
aF0.111
aF0.1186
aF0.1113
aF0.1182
aF0.1258
aF0.1132
aF0.1199
aF0.1111
aF0.1182
aF0.1219
aF0.1126
aF0.1177
aF0.1115
aF0.1256
aF0.1233
aF0.1107
aF0.1157
aF0.1111
aF0.1211
aF0.1286
aF0.1103
aF0.1115
aF0.1135
aF0.1198
aF0.1231
aF0.1118
aF0.112
aF0.1097
aF0.1189
aF0.1182
aF0.1117
aF0.1072
aF0.1126
aF0.1187
aF0.119
aF0.1143
aF0.1056
aF0.1083
aF0.1116
aF0.1207
aF0.1106
aF0.1125
aF0.1087
aF0.1115
aF0.1161
aF0.1104
aF0.1117
aF0.0995
aF0.1116
aF0.1156
aF0.1098
aF0.1125
aF0.1037
aF0.1191
aF0.1122
aF0.1134
aF0.1064
aF0.1057
aF0.1113
aF0.1152
aF0.1043
aF0.1089
aF0.1069
aF0.1122
aF0.1148
aF0.1113
aF0.1147
aF0.1025
aF0.1087
aF0.1156
aF0.0986
aF0.1009
aF0.1053
aF0.116
aF0.1131
aF0.1023
aF0.1032
aF0.1034
aF0.1133
aF0.1144
aF0.1054
aF0.1051
aF0.1069
aF0.1115
aF0.1087
aF0.1071
aF0.1014
aF0.1005
aF0.108
aF0.1126
aF0.1061
aF0.1036
aF0.0989
aF0.1107
aF0.1044
aF0.1114
aF0.1016
aF0.1033
aF0.1096
aF0.1049
aF0.1043
aF0.1049
aF0.101
aF0.106
aF0.1104
aF0.0999
aF0.1027
aF0.1017
aF0.107
aF0.1073
aF0.1027
aF0.1037
aF0.0989
aF0.1056
aF0.1132
aF0.0992
aF0.1044
aF0.0973
aF0.1083
aF0.1043
aF0.1023
aF0.102
aF0.098
aF0.1085
aF0.1062
aF0.099
aF0.1033
aF0.0953
aF0.106
aF0.1035
aF0.0994
aF0.0983
aF0.0963
aF0.1028
aF0.1008
aF0.1029
aF0.1003
aF0.0949
aF0.101
aF0.1017
aF0.0973
aF0.1052
aF0.0937
aF0.102
aF0.1024
aF0.1013
aF0.0985
aF0.0994
aF0.1047
aF0.1047
aF0.0984
aF0.1004
aF0.1002
aF0.1036
aF0.1002
aF0.0904
aF0.0978
aF0.0919
aF0.1019
aF0.1002
aF0.1015
aF0.1001
aF0.0934
aF0.1
aF0.1018
aF0.0935
aF0.1025
aF0.0929
aF0.1013
aF0.101
aF0.0932
aF0.0974
aF0.0936
aF0.097
aF0.1029
aF0.0984
aF0.1016
aF0.0937
aF0.098
aF0.0989
aF0.0953
aF0.1022
aF0.0936
aF0.0993
aF0.0974
aF0.0936
aF0.0913
aF0.0895
aF0.0969
aF0.0954
aF0.0995
aF0.0968
aF0.0931
aF0.0995
aF0.0981
aF0.0922
aF0.091
aF0.0946
aF0.0988
aF0.1028
aF0.0924
aF0.0887
aF0.0955
aF0.105
aF0.0955
aF0.0872
aF0.0761
aF0.0737
aF0.0764
aF0.0717
aF0.071
aF0.0694
aF0.0684
aF0.0697
aF0.0676
aF0.0711
aF0.0692
aF0.0696
aF0.0696
aF0.0676
aF0.069
aF0.0685
aF0.0615
aF0.0668
aF0.0654
aF0.0651
aF0.0664
aF0.0607
aF0.0622
aF0.0636
aF0.0621
aF0.0611
aF0.0614
aF0.0662
aF0.0616
aF0.0642
aF0.0666
aF0.0641
aF0.0646
aF0.0636
aF0.0644
aF0.059
aF0.0559
aF0.0592
aF0.0627
aF0.0612
aF0.0657
aF0.0568
aF0.06
aF0.0587
aF0.0585
aF0.0616
aF0.0548
aF0.0616
aF0.0635
aF0.058
aF0.0576
aF0.0553
aF0.0632
aF0.059
aF0.0586
aF0.0584
aF0.0575
aF0.0579
aF0.0564
aF0.0571
aF0.06
aF0.0539
aF0.062
aF0.0577
aF0.0596
aF0.0597
aF0.0549
aF0.0589
aF0.056
aF0.0573
aF0.0549
aF0.0582
aF0.0562
aF0.0549
aF0.0561
aF0.0582
aF0.0558
aF0.0585
aF0.0556
aF0.0584
aF0.0546
aF0.052
aF0.0557
aF0.0548
aF0.0569
aF0.0576
aF0.0525
aF0.0601
aF0.0554
aF0.0549
aF0.0578
aF0.0519
aF0.0548
aF0.0559
aF0.0537
aF0.0536
aF0.0522
aF0.0571
aF0.0543
a.