(lp0
F0.8759
aF0.7971
aF0.7488
aF0.6962
aF0.6666
aF0.6228
aF0.5943
aF0.5563
aF0.524
aF0.509
aF0.4716
aF0.4518
aF0.4361
aF0.4231
aF0.4117
aF0.39
aF0.3782
aF0.3995
aF0.3576
aF0.3684
aF0.3524
aF0.3523
aF0.3335
aF0.3273
aF0.3103
aF0.3248
aF0.3023
aF0.3092
aF0.3015
aF0.3032
aF0.2818
aF0.2899
aF0.3007
aF0.279
aF0.2848
aF0.2921
aF0.2688
aF0.2786
aF0.2709
aF0.2687
aF0.2669
aF0.2643
aF0.2587
aF0.259
aF0.258
aF0.2478
aF0.2514
aF0.2596
aF0.2452
aF0.2454
aF0.2536
aF0.2341
aF0.2376
aF0.2383
aF0.2324
aF0.2317
aF0.2469
aF0.2307
aF0.2319
aF0.2322
aF0.2239
aF0.2303
aF0.2232
aF0.2181
aF0.2182
aF0.2177
aF0.212
aF0.2189
aF0.2164
aF0.2115
aF0.217
aF0.2214
aF0.205
aF0.2166
aF0.2165
aF0.2085
aF0.1928
aF0.2134
aF0.2088
aF0.2427
aF0.1997
aF0.2078
aF0.2067
aF0.231
aF0.1985
aF0.2052
aF0.1994
aF0.2371
aF0.1925
aF0.1975
aF0.1944
aF0.2217
aF0.1909
aF0.1955
aF0.1908
aF0.2272
aF0.1945
aF0.1913
aF0.19
aF0.2166
aF0.1827
aF0.1915
aF0.1843
aF0.208
aF0.1868
aF0.1838
aF0.1824
aF0.2059
aF0.1825
aF0.1827
aF0.1718
aF0.1967
aF0.1757
aF0.1843
aF0.1812
aF0.1939
aF0.1733
aF0.178
aF0.1782
aF0.2036
aF0.1757
aF0.1765
aF0.176
aF0.2008
aF0.1706
aF0.1796
aF0.1729
aF0.1899
aF0.1717
aF0.1776
aF0.1648
aF0.1839
aF0.1615
aF0.1695
aF0.1687
aF0.183
aF0.1631
aF0.1597
aF0.1657
aF0.1755
aF0.1627
aF0.1721
aF0.1631
aF0.1829
aF0.1548
aF0.1725
aF0.1592
aF0.182
aF0.1565
aF0.1613
aF0.1573
aF0.18
aF0.1642
aF0.1616
aF0.1548
aF0.1762
aF0.151
aF0.1575
aF0.1541
aF0.1791
aF0.1542
aF0.161
aF0.1514
aF0.1681
aF0.1513
aF0.1578
aF0.1472
aF0.1527
aF0.1738
aF0.1967
aF0.156
aF0.1534
aF0.1526
aF0.1651
aF0.1921
aF0.1514
aF0.1518
aF0.1483
aF0.1542
aF0.1885
aF0.1483
aF0.1523
aF0.1493
aF0.1571
aF0.1757
aF0.1499
aF0.1446
aF0.1467
aF0.1596
aF0.179
aF0.1424
aF0.1458
aF0.1483
aF0.1572
aF0.1816
aF0.15
aF0.1526
aF0.1454
aF0.1705
aF0.1679
aF0.1433
aF0.147
aF0.1432
aF0.1554
aF0.1679
aF0.1496
aF0.1459
aF0.1454
aF0.1535
aF0.1663
aF0.1391
aF0.1434
aF0.1422
aF0.1525
aF0.1601
aF0.1374
aF0.1448
aF0.1346
aF0.1504
aF0.161
aF0.137
aF0.1435
aF0.1394
aF0.1469
aF0.1588
aF0.1394
aF0.1504
aF0.1438
aF0.15
aF0.1562
aF0.1375
aF0.1427
aF0.1375
aF0.1461
aF0.1554
aF0.1304
aF0.1526
aF0.1359
aF0.1455
aF0.1548
aF0.1371
aF0.1392
aF0.1313
aF0.1392
aF0.1537
aF0.1356
aF0.1394
aF0.1279
aF0.1444
aF0.1497
aF0.1349
aF0.1432
aF0.1308
aF0.1365
aF0.1494
aF0.1361
aF0.1356
aF0.1379
aF0.143
aF0.1492
aF0.1269
aF0.133
aF0.1317
aF0.1358
aF0.15
aF0.1373
aF0.1298
aF0.1313
aF0.1496
aF0.1419
aF0.1294
aF0.139
aF0.1393
aF0.144
aF0.1456
aF0.1312
aF0.1367
aF0.1351
aF0.1444
aF0.1379
aF0.1243
aF0.1363
aF0.1265
aF0.1474
aF0.1427
aF0.1264
aF0.1319
aF0.1226
aF0.1378
aF0.1392
aF0.1331
aF0.1371
aF0.1265
aF0.1369
aF0.14
aF0.126
aF0.1309
aF0.1287
aF0.1334
aF0.1447
aF0.1299
aF0.1331
aF0.1305
aF0.1337
aF0.1311
aF0.1297
aF0.1346
aF0.1271
aF0.1387
aF0.1368
aF0.1242
aF0.1272
aF0.1272
aF0.13
aF0.1389
aF0.1204
aF0.1305
aF0.1271
aF0.1419
aF0.1335
aF0.1253
aF0.1261
aF0.1283
aF0.1301
aF0.1358
aF0.1295
aF0.1362
aF0.1293
aF0.1296
aF0.1373
aF0.1277
aF0.1217
aF0.1228
aF0.1292
aF0.1288
aF0.1235
aF0.1246
aF0.1163
aF0.1297
aF0.1226
aF0.125
aF0.1293
aF0.1217
aF0.1261
aF0.1549
aF0.1197
aF0.1267
aF0.122
aF0.1369
aF0.1303
aF0.1234
aF0.1205
aF0.1231
aF0.1369
aF0.1266
aF0.1205
aF0.1196
aF0.1295
aF0.133
aF0.1247
aF0.1161
aF0.1293
aF0.12
aF0.1326
aF0.1196
aF0.1171
aF0.1224
aF0.1228
aF0.1302
aF0.1268
aF0.1185
aF0.1222
aF0.1232
aF0.1254
aF0.1268
aF0.119
aF0.1262
aF0.1177
aF0.1294
aF0.1229
aF0.122
aF0.1197
aF0.1167
aF0.1308
aF0.1145
aF0.1174
aF0.1215
aF0.1169
aF0.1257
aF0.1253
aF0.1155
aF0.1218
aF0.1143
aF0.1273
aF0.1234
aF0.1174
aF0.1305
aF0.1161
aF0.1313
aF0.1235
aF0.1162
aF0.1178
aF0.1184
aF0.1282
aF0.1241
aF0.122
aF0.1253
aF0.118
aF0.1217
aF0.1208
aF0.1144
aF0.1185
aF0.1141
aF0.1243
aF0.1248
aF0.119
aF0.1184
aF0.1179
aF0.1215
aF0.1211
aF0.1165
aF0.1246
aF0.1151
aF0.1206
aF0.1176
aF0.1177
aF0.1215
aF0.1103
aF0.123
aF0.118
aF0.1141
aF0.119
aF0.1133
aF0.1231
aF0.1143
aF0.1172
aF0.1177
aF0.1177
aF0.1221
aF0.1226
aF0.1066
aF0.1171
aF0.1141
aF0.1238
aF0.1147
aF0.1193
aF0.1173
aF0.1126
aF0.1222
aF0.1173
aF0.1122
aF0.1231
aF0.1087
aF0.1199
aF0.1188
aF0.1165
aF0.1167
aF0.1102
aF0.1175
aF0.1161
aF0.1084
aF0.1179
aF0.1053
aF0.1112
aF0.1183
aF0.116
aF0.1166
aF0.1112
aF0.1179
aF0.1091
aF0.1114
aF0.1167
aF0.1067
aF0.1219
aF0.118
aF0.11
aF0.1126
aF0.1098
aF0.1194
aF0.1185
aF0.1113
aF0.1173
aF0.1133
aF0.1151
aF0.1141
aF0.1158
aF0.117
aF0.111
aF0.1163
aF0.1173
aF0.1088
aF0.1166
aF0.1136
aF0.1147
aF0.1122
aF0.1286
aF0.1067
aF0.0967
aF0.0983
aF0.0863
aF0.0921
aF0.0933
aF0.0927
aF0.0896
aF0.082
aF0.091
aF0.089
aF0.0837
aF0.085
aF0.0811
aF0.0847
aF0.0863
aF0.0811
aF0.0862
aF0.0819
aF0.0884
aF0.0849
aF0.0813
aF0.0822
aF0.0807
aF0.0846
aF0.0824
aF0.076
aF0.0866
aF0.0853
aF0.0782
aF0.0835
aF0.0772
aF0.0867
aF0.083
aF0.0782
aF0.0817
aF0.0778
aF0.0831
aF0.08
aF0.0789
aF0.0843
aF0.0779
aF0.082
aF0.0777
aF0.082
aF0.0811
aF0.0731
aF0.0803
aF0.0747
aF0.0769
aF0.0774
aF0.075
aF0.0858
aF0.0754
aF0.0793
aF0.0799
aF0.0717
aF0.0791
aF0.0761
aF0.08
aF0.0746
aF0.072
aF0.0794
aF0.075
aF0.0784
aF0.0811
aF0.0756
aF0.0792
aF0.0774
aF0.0751
aF0.0772
aF0.0746
aF0.078
aF0.0769
aF0.0773
aF0.074
aF0.0759
aF0.0762
aF0.072
aF0.0775
aF0.0754
aF0.0739
aF0.0764
aF0.073
aF0.0755
aF0.0755
aF0.0725
aF0.0794
aF0.0764
aF0.0739
aF0.0739
aF0.0722
aF0.0778
aF0.0721
aF0.0728
aF0.0779
aF0.0718
aF0.0771
aF0.0734
aF0.0733
aF0.0769
aF0.0743
aF0.076
aF0.0738
aF0.073
aF0.0756
aF0.0707
aF0.0767
aF0.0734
aF0.073
aF0.0749
aF0.0716
aF0.0765
aF0.0711
aF0.0716
aF0.0753
aF0.0701
aF0.0752
aF0.0729
aF0.0701
aF0.0751
aF0.0682
aF0.0746
aF0.0723
aF0.0736
aF0.0752
aF0.071
aF0.0732
aF0.0726
aF0.0704
aF0.0724
aF0.0695
aF0.0707
aF0.0708
aF0.0698
aF0.0699
aF0.0684
aF0.0738
aF0.0725
aF0.0762
aF0.0732
aF0.0671
aF0.0751
aF0.0689
aF0.0714
aF0.0721
aF0.068
aF0.0743
aF0.0706
aF0.0728
aF0.0711
aF0.0676
aF0.0685
aF0.0661
aF0.0684
aF0.0707
aF0.0684
aF0.0737
aF0.0663
aF0.072
aF0.07
aF0.0654
aF0.0723
aF0.0684
aF0.0686
aF0.0717
aF0.0663
aF0.074
aF0.0654
aF0.0694
aF0.0718
aF0.0651
aF0.0718
aF0.0666
aF0.0693
aF0.0723
aF0.0667
aF0.0701
aF0.0652
aF0.0665
aF0.0688
aF0.0618
aF0.0753
aF0.068
aF0.0667
aF0.0724
aF0.0664
aF0.0717
aF0.0679
aF0.0676
aF0.0701
aF0.0633
aF0.0736
aF0.0716
aF0.0666
aF0.0701
aF0.0686
aF0.0707
aF0.0669
a.