(lp0
F0.874
aF0.7707
aF0.7105
aF0.668
aF0.6329
aF0.6066
aF0.5697
aF0.5572
aF0.5265
aF0.4981
aF0.486
aF0.4534
aF0.4419
aF0.4305
aF0.4184
aF0.3943
aF0.3823
aF0.3976
aF0.363
aF0.3739
aF0.3506
aF0.3577
aF0.3332
aF0.3453
aF0.3228
aF0.3282
aF0.3144
aF0.311
aF0.3057
aF0.3035
aF0.2925
aF0.3004
aF0.315
aF0.2861
aF0.2896
aF0.2918
aF0.2776
aF0.2806
aF0.2825
aF0.2633
aF0.2749
aF0.2699
aF0.2593
aF0.2623
aF0.2533
aF0.248
aF0.2521
aF0.2494
aF0.2411
aF0.2443
aF0.2529
aF0.2377
aF0.2431
aF0.2361
aF0.2311
aF0.2354
aF0.2371
aF0.2281
aF0.2239
aF0.233
aF0.2173
aF0.2301
aF0.2184
aF0.2116
aF0.22
aF0.2164
aF0.2168
aF0.2235
aF0.2096
aF0.2144
aF0.2028
aF0.2038
aF0.2102
aF0.2092
aF0.2209
aF0.2009
aF0.1903
aF0.2099
aF0.1982
aF0.2476
aF0.1978
aF0.2016
aF0.1997
aF0.233
aF0.1999
aF0.205
aF0.1958
aF0.2291
aF0.1828
aF0.1965
aF0.1949
aF0.2236
aF0.1794
aF0.189
aF0.1916
aF0.2105
aF0.1838
aF0.186
aF0.1784
aF0.2114
aF0.1809
aF0.18
aF0.1778
aF0.2066
aF0.1737
aF0.1882
aF0.1756
aF0.1964
aF0.1723
aF0.1864
aF0.1777
aF0.2038
aF0.1791
aF0.1768
aF0.1645
aF0.1986
aF0.1773
aF0.1684
aF0.1665
aF0.1815
aF0.168
aF0.1746
aF0.1726
aF0.1847
aF0.1681
aF0.1716
aF0.1628
aF0.1907
aF0.174
aF0.1709
aF0.1634
aF0.1817
aF0.1626
aF0.1665
aF0.1683
aF0.1784
aF0.1662
aF0.1602
aF0.1541
aF0.1724
aF0.1585
aF0.1623
aF0.1599
aF0.1835
aF0.1559
aF0.165
aF0.1581
aF0.1713
aF0.1564
aF0.1608
aF0.1596
aF0.1669
aF0.1535
aF0.156
aF0.1501
aF0.1678
aF0.1545
aF0.152
aF0.1434
aF0.1644
aF0.1499
aF0.153
aF0.15
aF0.1616
aF0.1492
aF0.1447
aF0.1396
aF0.1489
aF0.1529
aF0.2012
aF0.1559
aF0.1475
aF0.1486
aF0.1603
aF0.1885
aF0.1509
aF0.1473
aF0.1489
aF0.1585
aF0.1851
aF0.1477
aF0.1437
aF0.1439
aF0.1584
aF0.1781
aF0.1489
aF0.1499
aF0.1468
aF0.1601
aF0.1744
aF0.1452
aF0.1489
aF0.1426
aF0.1505
aF0.166
aF0.1406
aF0.1443
aF0.1387
aF0.152
aF0.17
aF0.144
aF0.1437
aF0.1303
aF0.159
aF0.1715
aF0.1445
aF0.1451
aF0.1379
aF0.153
aF0.1604
aF0.1355
aF0.1389
aF0.1366
aF0.146
aF0.1554
aF0.139
aF0.1426
aF0.1421
aF0.1452
aF0.1584
aF0.1465
aF0.1388
aF0.1352
aF0.1357
aF0.1536
aF0.136
aF0.1409
aF0.1323
aF0.1444
aF0.1555
aF0.1481
aF0.1331
aF0.1379
aF0.1452
aF0.1495
aF0.1369
aF0.1396
aF0.1249
aF0.1455
aF0.1494
aF0.131
aF0.1345
aF0.1291
aF0.1383
aF0.1438
aF0.1257
aF0.1332
aF0.1298
aF0.1417
aF0.1393
aF0.1336
aF0.1365
aF0.1274
aF0.1397
aF0.1458
aF0.134
aF0.1273
aF0.1277
aF0.1375
aF0.1375
aF0.1341
aF0.1343
aF0.1258
aF0.1339
aF0.1407
aF0.1378
aF0.1379
aF0.1276
aF0.1371
aF0.1333
aF0.1292
aF0.1289
aF0.1293
aF0.1424
aF0.1346
aF0.1314
aF0.1308
aF0.1309
aF0.1361
aF0.1314
aF0.1284
aF0.1233
aF0.1216
aF0.1367
aF0.135
aF0.1311
aF0.1348
aF0.1211
aF0.1336
aF0.1363
aF0.1237
aF0.1288
aF0.1234
aF0.1276
aF0.1326
aF0.1202
aF0.1261
aF0.1215
aF0.1336
aF0.1274
aF0.1255
aF0.1307
aF0.1251
aF0.1289
aF0.1249
aF0.1294
aF0.1244
aF0.1202
aF0.1278
aF0.1305
aF0.1287
aF0.1252
aF0.1226
aF0.1304
aF0.1239
aF0.122
aF0.1263
aF0.128
aF0.1325
aF0.1264
aF0.1262
aF0.126
aF0.1235
aF0.1329
aF0.1214
aF0.1235
aF0.1274
aF0.1222
aF0.1237
aF0.1252
aF0.1202
aF0.1221
aF0.1213
aF0.1203
aF0.1287
aF0.1172
aF0.1204
aF0.116
aF0.1258
aF0.1241
aF0.1179
aF0.1199
aF0.1201
aF0.1181
aF0.1301
aF0.1228
aF0.1242
aF0.1211
aF0.128
aF0.1226
aF0.1146
aF0.1213
aF0.1197
aF0.1203
aF0.1228
aF0.111
aF0.1186
aF0.119
aF0.1293
aF0.1236
aF0.1164
aF0.1177
aF0.1118
aF0.1216
aF0.1172
aF0.1175
aF0.1217
aF0.1134
aF0.1211
aF0.1209
aF0.1165
aF0.1216
aF0.1151
aF0.1256
aF0.1159
aF0.1193
aF0.1259
aF0.116
aF0.1241
aF0.1191
aF0.115
aF0.1152
aF0.1191
aF0.1149
aF0.1223
aF0.1164
aF0.115
aF0.1126
aF0.1242
aF0.1126
aF0.1134
aF0.1227
aF0.1136
aF0.1158
aF0.1174
aF0.1216
aF0.1221
aF0.1177
aF0.1182
aF0.1182
aF0.1178
aF0.1144
aF0.1101
aF0.1159
aF0.1175
aF0.1103
aF0.1154
aF0.1067
aF0.1146
aF0.1225
aF0.1122
aF0.1202
aF0.1135
aF0.1131
aF0.1203
aF0.1236
aF0.1202
aF0.1148
aF0.1155
aF0.1255
aF0.1115
aF0.1108
aF0.1109
aF0.1149
aF0.1168
aF0.1117
aF0.1185
aF0.1103
aF0.1258
aF0.1112
aF0.1135
aF0.1182
aF0.1124
aF0.1207
aF0.1057
aF0.1094
aF0.1113
aF0.1162
aF0.1143
aF0.1167
aF0.1075
aF0.1052
aF0.1075
aF0.11
aF0.1144
aF0.1145
aF0.1087
aF0.1092
aF0.11
aF0.1162
aF0.117
aF0.1112
aF0.1083
aF0.1158
aF0.1063
aF0.1142
aF0.1118
aF0.1063
aF0.1104
aF0.1097
aF0.11
aF0.1128
aF0.1071
aF0.1116
aF0.1121
aF0.1112
aF0.1101
aF0.1105
aF0.1178
aF0.1188
aF0.1131
aF0.1165
aF0.1085
aF0.1112
aF0.1151
aF0.1094
aF0.1077
aF0.1057
aF0.1098
aF0.1143
aF0.1067
aF0.109
aF0.1095
aF0.1131
aF0.1138
aF0.1073
aF0.1136
aF0.1076
aF0.1149
aF0.1089
aF0.1111
aF0.1094
aF0.1049
aF0.1125
aF0.1142
aF0.1192
aF0.0931
aF0.0808
aF0.0867
aF0.0789
aF0.0841
aF0.0807
aF0.0772
aF0.0791
aF0.0736
aF0.0812
aF0.0758
aF0.0724
aF0.0784
aF0.0748
aF0.0737
aF0.0729
aF0.0694
aF0.0708
aF0.0696
aF0.0747
aF0.0715
aF0.068
aF0.0719
aF0.0706
aF0.0714
aF0.0677
aF0.0651
aF0.0708
aF0.0667
aF0.0713
aF0.0686
aF0.0667
aF0.0703
aF0.0676
aF0.0697
aF0.0692
aF0.061
aF0.0724
aF0.0633
aF0.0683
aF0.0619
aF0.0626
aF0.0673
aF0.0638
aF0.0659
aF0.0652
aF0.0635
aF0.0656
aF0.0656
aF0.068
aF0.067
aF0.0602
aF0.06
aF0.062
aF0.0685
aF0.0623
aF0.0583
aF0.0652
aF0.0625
aF0.064
aF0.0666
aF0.0596
aF0.0651
aF0.058
aF0.0637
aF0.0625
aF0.059
aF0.0624
aF0.0562
aF0.0638
aF0.06
aF0.06
aF0.0652
aF0.0594
aF0.0603
aF0.0609
aF0.0609
aF0.0618
aF0.0583
aF0.0612
aF0.0608
aF0.0557
aF0.0603
aF0.0568
aF0.0621
aF0.0583
aF0.0583
aF0.0611
aF0.0582
aF0.0613
aF0.0572
aF0.0555
aF0.0619
aF0.0601
aF0.0584
aF0.0569
aF0.0539
aF0.0644
aF0.055
a.