(lp0
F0.8743
aF0.7852
aF0.717
aF0.6691
aF0.6429
aF0.6043
aF0.5791
aF0.5545
aF0.5531
aF0.5281
aF0.4996
aF0.5034
aF0.4692
aF0.4728
aF0.4393
aF0.4281
aF0.4171
aF0.4076
aF0.3946
aF0.3756
aF0.3745
aF0.3741
aF0.3581
aF0.3676
aF0.3647
aF0.343
aF0.3393
aF0.3216
aF0.337
aF0.3228
aF0.3155
aF0.3278
aF0.3095
aF0.3123
aF0.2972
aF0.2993
aF0.294
aF0.2894
aF0.3142
aF0.2943
aF0.2874
aF0.2966
aF0.2856
aF0.29
aF0.2852
aF0.2751
aF0.2692
aF0.2672
aF0.2749
aF0.2716
aF0.2717
aF0.2658
aF0.2584
aF0.2816
aF0.2669
aF0.2761
aF0.2592
aF0.2483
aF0.2683
aF0.2501
aF0.2529
aF0.2475
aF0.2564
aF0.2543
aF0.2484
aF0.2491
aF0.2592
aF0.2532
aF0.2484
aF0.2391
aF0.2386
aF0.2454
aF0.235
aF0.2355
aF0.2243
aF0.2324
aF0.2336
aF0.238
aF0.246
aF0.2484
aF0.2582
aF0.2614
aF0.2614
aF0.2522
aF0.2519
aF0.2489
aF0.2405
aF0.2298
aF0.2414
aF0.2278
aF0.223
aF0.243
aF0.2222
aF0.2249
aF0.2166
aF0.2188
aF0.2288
aF0.2181
aF0.2291
aF0.2273
aF0.2237
aF0.219
aF0.2072
aF0.22
aF0.2142
aF0.2146
aF0.2343
aF0.2261
aF0.2246
aF0.2158
aF0.2163
aF0.2118
aF0.2061
aF0.2066
aF0.2026
aF0.1981
aF0.2069
aF0.1905
aF0.2011
aF0.2005
aF0.1994
aF0.1953
aF0.1974
aF0.1973
aF0.1922
aF0.193
aF0.2052
aF0.1904
aF0.2087
aF0.2188
aF0.214
aF0.2277
aF0.2446
aF0.2282
aF0.2098
aF0.1946
aF0.2033
aF0.1961
aF0.205
aF0.1962
aF0.2113
aF0.2195
aF0.1993
aF0.2082
aF0.1926
aF0.1896
aF0.1916
aF0.1838
aF0.2007
aF0.1884
aF0.1876
aF0.1931
aF0.1763
aF0.202
aF0.1856
aF0.1839
aF0.1926
aF0.1865
aF0.1903
aF0.1845
aF0.1877
aF0.1893
aF0.183
aF0.191
aF0.1809
aF0.1736
aF0.1878
aF0.1761
aF0.1951
aF0.191
aF0.198
aF0.195
aF0.1843
aF0.1853
aF0.1763
aF0.1841
aF0.1845
aF0.1788
aF0.1818
aF0.1791
aF0.1815
aF0.1761
aF0.1664
aF0.182
aF0.1817
aF0.1846
aF0.1855
aF0.1801
aF0.198
aF0.1847
a.