(lp0
F0.7763
aF0.6809
aF0.6273
aF0.6141
aF0.5822
aF0.5674
aF0.5521
aF0.5369
aF0.5223
aF0.5166
aF0.5072
aF0.4968
aF0.4752
aF0.4924
aF0.4744
aF0.4645
aF0.4579
aF0.4418
aF0.4424
aF0.4523
aF0.4473
aF0.4289
aF0.4294
aF0.4168
aF0.4148
aF0.4025
aF0.4077
aF0.4257
aF0.4022
aF0.4256
aF0.3961
aF0.4038
aF0.3903
aF0.4003
aF0.386
aF0.4062
aF0.3734
aF0.4001
aF0.3718
aF0.3937
aF0.3634
aF0.3702
aF0.3612
aF0.3753
aF0.3721
aF0.3685
aF0.3555
aF0.3646
aF0.3557
aF0.3595
aF0.355
aF0.35
aF0.3662
aF0.361
aF0.3444
aF0.3603
aF0.3505
aF0.3398
aF0.3477
aF0.3439
aF0.3289
aF0.3455
aF0.3555
aF0.338
aF0.3415
aF0.3412
aF0.33
aF0.3463
aF0.3377
aF0.3178
aF0.3242
aF0.3408
aF0.3235
aF0.3377
aF0.3401
aF0.3234
aF0.3291
aF0.32
aF0.3199
aF0.3207
aF0.3196
aF0.3135
aF0.3181
aF0.3169
aF0.3046
aF0.323
aF0.315
aF0.3079
aF0.3186
aF0.3178
aF0.3037
aF0.3145
aF0.3135
aF0.3135
aF0.3116
aF0.3007
aF0.3013
aF0.3012
aF0.301
aF0.2986
aF0.3032
aF0.3074
aF0.3009
aF0.3109
aF0.3001
aF0.2984
aF0.3002
aF0.2929
aF0.2874
aF0.3035
aF0.2983
aF0.289
aF0.2995
aF0.2951
aF0.2921
aF0.2873
aF0.2843
aF0.2864
aF0.2926
aF0.2897
aF0.2826
aF0.2889
aF0.2806
aF0.2882
aF0.2885
aF0.279
aF0.2737
aF0.3216
aF0.2863
aF0.2907
aF0.2807
aF0.3162
aF0.2782
aF0.2835
aF0.2791
aF0.3073
aF0.2853
aF0.2936
aF0.2726
aF0.2983
aF0.2797
aF0.2881
aF0.2818
aF0.2984
aF0.2736
aF0.2794
aF0.2828
aF0.3047
aF0.2685
aF0.2745
aF0.2736
aF0.2989
aF0.2797
aF0.2797
aF0.2744
aF0.3001
aF0.2708
aF0.2759
aF0.2649
aF0.294
aF0.2809
aF0.2761
aF0.2747
aF0.2907
aF0.2688
aF0.2858
aF0.2653
aF0.2823
aF0.2763
aF0.269
aF0.2674
aF0.2856
aF0.2695
aF0.265
aF0.256
aF0.2859
aF0.2684
aF0.2639
aF0.2653
aF0.2883
aF0.2644
aF0.2639
aF0.2631
aF0.2877
aF0.2651
aF0.2678
aF0.2668
aF0.2847
aF0.2642
aF0.2659
aF0.2564
aF0.2763
aF0.26
aF0.26
aF0.253
aF0.2711
aF0.2639
aF0.2623
aF0.2571
aF0.2686
aF0.2601
aF0.2653
aF0.2552
aF0.2734
aF0.2503
aF0.2555
aF0.2649
aF0.2726
aF0.2518
aF0.2595
aF0.2513
aF0.2688
aF0.2557
aF0.2554
aF0.2622
aF0.2674
aF0.2481
aF0.2565
aF0.2527
aF0.2715
aF0.2584
aF0.2627
aF0.2474
aF0.2634
aF0.2576
aF0.2595
aF0.2573
aF0.263
aF0.2573
aF0.2502
aF0.2406
aF0.2627
aF0.247
aF0.2581
aF0.2532
aF0.2667
aF0.2479
aF0.2552
aF0.2522
aF0.2603
aF0.2512
aF0.2567
aF0.2516
aF0.2654
aF0.2529
aF0.2524
aF0.2443
aF0.2584
aF0.2417
aF0.2588
aF0.2492
aF0.2656
aF0.2519
aF0.2522
aF0.2474
aF0.2572
aF0.2453
aF0.2558
aF0.2452
aF0.2565
aF0.2536
aF0.2537
aF0.2357
aF0.2624
aF0.2449
aF0.2466
aF0.2505
aF0.2618
aF0.2451
aF0.2536
aF0.241
aF0.2592
aF0.244
aF0.2492
aF0.2427
aF0.2546
aF0.2488
aF0.2416
aF0.254
aF0.2695
aF0.2486
aF0.2552
aF0.2435
aF0.2527
aF0.2691
aF0.2468
aF0.2433
aF0.235
aF0.2519
aF0.2613
aF0.2421
aF0.2464
aF0.2353
aF0.2496
aF0.2653
aF0.2466
aF0.2384
aF0.241
aF0.2492
aF0.2579
aF0.2545
aF0.25
aF0.2447
aF0.2468
aF0.2555
aF0.2401
aF0.2382
aF0.2343
aF0.2476
aF0.2548
aF0.2389
aF0.2452
aF0.236
aF0.248
aF0.2555
aF0.2531
aF0.2423
aF0.2308
aF0.256
aF0.2493
aF0.2371
aF0.241
aF0.2398
aF0.2387
aF0.243
aF0.2429
aF0.2407
aF0.2358
aF0.2479
aF0.2513
aF0.2406
aF0.2384
aF0.2295
aF0.2465
aF0.248
aF0.234
aF0.2382
aF0.2325
aF0.2441
aF0.2521
aF0.2449
aF0.2383
aF0.2352
aF0.2418
aF0.2515
aF0.2353
aF0.2349
aF0.2287
aF0.2506
aF0.2503
aF0.2299
aF0.2418
aF0.2361
aF0.2451
aF0.2486
aF0.2359
aF0.2493
aF0.2293
aF0.2431
aF0.2493
aF0.2403
aF0.2405
aF0.2352
aF0.2399
aF0.2479
aF0.2345
aF0.2439
aF0.2347
aF0.2387
aF0.2415
aF0.24
aF0.2413
aF0.2323
aF0.2346
aF0.245
aF0.2365
aF0.2354
aF0.2324
aF0.2491
aF0.2423
aF0.2309
aF0.2391
aF0.2368
aF0.2393
aF0.2449
aF0.2328
aF0.2395
aF0.2254
aF0.2383
aF0.2411
aF0.2405
aF0.2346
aF0.2212
aF0.2385
aF0.232
aF0.2279
aF0.2344
aF0.2235
aF0.2288
aF0.2369
aF0.2323
aF0.2318
aF0.2285
aF0.2364
aF0.2424
aF0.2363
aF0.2319
aF0.2252
aF0.2411
aF0.2319
aF0.2298
aF0.235
aF0.228
aF0.2405
aF0.2334
aF0.2317
aF0.2329
aF0.2234
aF0.2356
aF0.2461
aF0.2279
aF0.2303
aF0.2246
aF0.2393
aF0.2348
aF0.2283
aF0.2322
aF0.2281
aF0.2336
aF0.2369
aF0.2293
aF0.2301
aF0.2234
aF0.2307
aF0.2313
aF0.2247
aF0.2369
aF0.2213
aF0.2316
aF0.24
aF0.2307
aF0.2306
aF0.2215
aF0.2338
aF0.2333
aF0.2363
aF0.2346
aF0.2254
aF0.2368
aF0.2333
aF0.2294
aF0.2357
aF0.2256
aF0.2332
aF0.2367
aF0.228
aF0.2323
aF0.2285
aF0.2309
aF0.2328
aF0.2251
aF0.2317
aF0.2198
aF0.2339
aF0.2294
aF0.2251
aF0.2366
aF0.2238
aF0.2279
aF0.2319
aF0.2205
aF0.2285
aF0.2218
aF0.2397
aF0.2277
aF0.225
aF0.233
aF0.2209
aF0.2364
aF0.2296
aF0.2232
aF0.2239
aF0.2219
aF0.2317
aF0.2364
aF0.2181
aF0.2285
aF0.2179
aF0.2327
aF0.2257
aF0.2344
aF0.2273
aF0.218
aF0.2277
aF0.2285
aF0.2297
aF0.2216
aF0.2273
aF0.2223
aF0.2274
aF0.2268
aF0.2293
aF0.2252
aF0.2275
aF0.2266
aF0.2184
aF0.2264
aF0.2264
aF0.2283
aF0.2308
aF0.2249
aF0.2264
aF0.2195
aF0.2298
aF0.2275
aF0.2156
aF0.2201
aF0.2174
aF0.229
aF0.2264
aF0.2202
aF0.2202
aF0.2214
aF0.2256
aF0.2246
aF0.2262
aF0.2207
aF0.2231
aF0.2231
aF0.2214
aF0.2272
aF0.2212
aF0.2197
aF0.2308
aF0.226
aF0.2239
aF0.2193
aF0.224
aF0.2266
aF0.2258
aF0.2275
aF0.2253
aF0.2142
aF0.2242
aF0.2196
aF0.2259
aF0.222
aF0.2155
aF0.2257
aF0.2288
aF0.2217
aF0.2261
aF0.2175
aF0.2281
aF0.226
aF0.22
aF0.225
aF0.2127
aF0.2252
aF0.2249
aF0.2216
aF0.2268
aF0.2117
aF0.2344
aF0.2246
aF0.2197
aF0.2193
aF0.2103
aF0.2283
aF0.2194
aF0.2164
aF0.2243
aF0.2085
aF0.2298
aF0.2258
aF0.2227
aF0.2237
aF0.2198
aF0.2222
aF0.2204
aF0.2188
aF0.2228
aF0.2135
aF0.2266
aF0.2219
aF0.2177
aF0.2226
aF0.2109
aF0.2167
aF0.2241
aF0.2157
aF0.2207
aF0.2047
aF0.2269
aF0.2226
aF0.2215
aF0.2324
aF0.2112
aF0.2327
aF0.2197
aF0.2161
aF0.2166
aF0.2089
aF0.2232
aF0.2188
aF0.2252
aF0.2188
aF0.2166
aF0.2238
aF0.2189
aF0.2116
aF0.2291
aF0.2115
aF0.2192
aF0.2167
aF0.2189
aF0.2123
aF0.2119
aF0.2261
aF0.2121
aF0.2189
aF0.2229
aF0.2042
aF0.2159
aF0.2173
aF0.2233
aF0.2147
aF0.2075
aF0.223
aF0.2111
aF0.2158
aF0.2176
aF0.2133
aF0.2234
aF0.2206
aF0.2158
aF0.2179
aF0.2107
aF0.2162
aF0.211
aF0.2143
aF0.2204
aF0.2151
aF0.2216
aF0.2188
aF0.2188
aF0.2151
aF0.211
aF0.2258
aF0.2136
aF0.2063
aF0.2202
aF0.2046
aF0.2147
aF0.2174
aF0.218
aF0.2218
aF0.2107
aF0.2219
aF0.2178
aF0.2218
aF0.2198
aF0.2126
aF0.2263
aF0.22
aF0.2099
aF0.2151
aF0.2138
aF0.2185
aF0.2104
aF0.2113
aF0.2163
aF0.2058
aF0.2179
aF0.2122
aF0.2123
aF0.2173
aF0.2093
aF0.2128
aF0.2125
aF0.2136
aF0.2192
aF0.2108
aF0.2259
aF0.2217
aF0.2113
aF0.2165
aF0.2068
aF0.2192
aF0.2104
aF0.2095
aF0.2215
aF0.2121
aF0.2242
aF0.2205
aF0.2149
aF0.215
aF0.2078
aF0.2206
aF0.2074
aF0.2071
aF0.2146
aF0.2125
aF0.2173
aF0.2157
aF0.2147
aF0.2186
aF0.1988
aF0.2137
aF0.2126
aF0.2067
aF0.2124
aF0.204
aF0.208
aF0.2072
aF0.2114
aF0.2126
aF0.2139
aF0.2139
aF0.206
aF0.2129
aF0.2088
aF0.2101
aF0.2205
aF0.2189
aF0.2109
aF0.2201
aF0.2045
aF0.2175
aF0.2139
aF0.2106
aF0.2178
aF0.2077
aF0.2215
aF0.2108
aF0.2092
aF0.2155
aF0.1981
aF0.216
aF0.2163
aF0.212
aF0.2033
aF0.2065
aF0.2055
aF0.2133
aF0.2046
aF0.2088
aF0.213
aF0.2115
aF0.2105
aF0.2062
aF0.2182
aF0.2043
aF0.2138
aF0.2097
aF0.2079
aF0.2117
aF0.2128
aF0.2173
aF0.2067
aF0.2119
aF0.2216
aF0.2136
aF0.2133
aF0.2147
aF0.2113
aF0.2168
aF0.2024
aF0.2236
aF0.2126
aF0.2163
aF0.2073
aF0.2058
aF0.21
aF0.2089
aF0.2031
aF0.2133
aF0.2038
aF0.2213
aF0.2157
aF0.2177
aF0.2077
aF0.2075
aF0.2189
aF0.2168
aF0.2074
aF0.207
aF0.2042
aF0.216
aF0.213
aF0.2069
aF0.2148
aF0.2034
aF0.2127
aF0.2178
aF0.2169
aF0.2126
aF0.2104
aF0.2094
aF0.2103
aF0.2077
aF0.2116
aF0.2023
aF0.2137
aF0.2119
aF0.2126
aF0.2078
aF0.2056
aF0.2168
aF0.205
aF0.2111
aF0.2086
aF0.2056
aF0.2118
aF0.2058
aF0.2064
aF0.2094
aF0.2029
aF0.2114
aF0.2039
aF0.208
aF0.2146
aF0.2066
aF0.2145
aF0.2012
aF0.2034
aF0.2091
aF0.2074
aF0.2179
aF0.2049
aF0.2085
aF0.2111
aF0.2016
aF0.2137
aF0.208
aF0.2078
aF0.2116
aF0.1968
aF0.2135
aF0.2026
aF0.207
aF0.2085
aF0.197
aF0.2145
aF0.2096
aF0.2122
aF0.2069
aF0.2029
aF0.2096
aF0.2057
aF0.2041
aF0.2054
aF0.2026
aF0.2189
aF0.2133
aF0.2084
aF0.2158
aF0.2006
aF0.2116
aF0.2029
aF0.2025
aF0.2038
aF0.2015
aF0.207
aF0.209
aF0.2071
aF0.214
aF0.2013
aF0.2122
aF0.2105
aF0.2106
aF0.2088
aF0.2005
aF0.2162
aF0.2114
aF0.2019
aF0.2038
aF0.2033
aF0.216
aF0.2034
aF0.2109
aF0.213
aF0.1965
aF0.2092
aF0.2076
aF0.2009
aF0.2071
aF0.2051
aF0.2113
aF0.1999
aF0.2082
aF0.2091
aF0.1973
aF0.2139
aF0.201
aF0.2052
aF0.212
aF0.2062
aF0.2047
aF0.2144
aF0.2056
aF0.2049
aF0.1958
aF0.2055
aF0.1965
aF0.2036
aF0.2107
aF0.2005
aF0.2063
aF0.2034
aF0.2022
aF0.2008
aF0.203
aF0.2066
aF0.2073
aF0.2032
aF0.2067
aF0.201
aF0.2109
aF0.203
aF0.2
aF0.2089
aF0.1989
aF0.2098
aF0.1976
aF0.2023
aF0.2062
aF0.1961
aF0.2092
aF0.207
aF0.2064
aF0.2063
aF0.2003
aF0.2116
aF0.2065
aF0.1996
aF0.2073
aF0.198
aF0.2055
aF0.2007
aF0.2048
aF0.212
aF0.1973
aF0.2143
aF0.2004
aF0.2022
aF0.2053
aF0.2016
aF0.2062
aF0.2074
aF0.2011
aF0.208
aF0.2017
aF0.2077
aF0.2017
aF0.2039
aF0.2083
aF0.2006
aF0.2093
aF0.205
aF0.2012
aF0.2048
aF0.1993
aF0.202
aF0.2059
aF0.2017
aF0.2079
aF0.1998
aF0.2052
aF0.206
aF0.205
aF0.2099
aF0.1992
aF0.2137
aF0.202
aF0.2034
aF0.2112
aF0.1945
aF0.2039
aF0.205
aF0.2069
aF0.2037
aF0.1971
aF0.2082
aF0.2018
aF0.2029
aF0.1975
aF0.1973
aF0.2044
aF0.1989
aF0.2027
aF0.2078
aF0.1975
aF0.205
aF0.2019
aF0.1928
aF0.2045
aF0.1919
aF0.2028
aF0.2003
aF0.2085
aF0.2028
aF0.194
aF0.2065
aF0.2036
aF0.2037
aF0.1983
aF0.1989
aF0.2102
aF0.2062
aF0.1977
aF0.1992
aF0.2004
aF0.214
aF0.1989
aF0.1953
aF0.2018
aF0.1894
aF0.2061
aF0.1979
aF0.2021
aF0.2005
aF0.2078
aF0.203
aF0.197
aF0.2019
aF0.2019
aF0.1931
aF0.21
aF0.2011
aF0.1964
aF0.212
aF0.1915
aF0.2071
aF0.2009
aF0.2029
aF0.209
aF0.198
aF0.2124
aF0.2103
aF0.1953
aF0.2025
aF0.1973
aF0.2069
aF0.1989
aF0.2056
aF0.205
aF0.1914
aF0.2036
aF0.2068
aF0.1976
aF0.2044
aF0.1991
aF0.2045
aF0.1964
aF0.2047
aF0.2036
aF0.1895
aF0.2023
aF0.1927
aF0.1991
aF0.2045
aF0.1957
aF0.2025
aF0.2126
aF0.1998
aF0.2035
aF0.1891
aF0.2033
aF0.2013
aF0.1965
aF0.2067
aF0.1964
aF0.2012
aF0.2012
aF0.1977
aF0.1974
aF0.1956
aF0.2082
aF0.198
aF0.1966
aF0.2086
aF0.1953
aF0.2043
aF0.1964
aF0.1969
aF0.2065
aF0.2004
aF0.2138
aF0.1985
aF0.1982
aF0.2099
aF0.1913
aF0.2095
aF0.2041
aF0.2032
aF0.2011
aF0.1915
aF0.2124
aF0.2021
aF0.2022
aF0.2035
aF0.1956
aF0.2085
aF0.2056
aF0.1949
aF0.1972
aF0.1925
aF0.2018
aF0.2016
aF0.1958
aF0.2108
aF0.1963
aF0.1985
aF0.2023
aF0.1945
aF0.205
aF0.1908
aF0.2014
aF0.1968
aF0.1964
aF0.2028
aF0.1983
aF0.1964
aF0.1978
aF0.199
aF0.2015
aF0.2024
aF0.2072
aF0.1944
aF0.2033
aF0.2
aF0.1901
aF0.2084
aF0.2026
aF0.197
aF0.2022
aF0.1976
aF0.2018
aF0.2003
aF0.1932
aF0.2006
aF0.195
aF0.2077
aF0.1974
aF0.2024
aF0.2058
aF0.1972
aF0.2059
aF0.1969
aF0.1956
aF0.1996
aF0.1977
aF0.2029
aF0.1954
aF0.1964
aF0.203
aF0.1879
aF0.1993
aF0.1977
aF0.1986
aF0.202
aF0.1962
aF0.2057
aF0.201
aF0.2064
aF0.197
aF0.1899
aF0.2041
aF0.1933
aF0.1984
aF0.1976
aF0.1895
aF0.2053
aF0.1974
aF0.2009
aF0.197
aF0.1889
aF0.201
aF0.2048
aF0.1937
aF0.1962
aF0.193
aF0.2081
aF0.1941
aF0.1906
aF0.1987
aF0.1964
aF0.2039
aF0.1961
aF0.1923
aF0.1998
aF0.1973
aF0.2075
aF0.1953
aF0.2034
aF0.2044
aF0.197
aF0.1998
aF0.1899
aF0.1995
aF0.2
aF0.1954
aF0.2062
aF0.2065
aF0.1961
aF0.2037
aF0.1957
aF0.2013
aF0.1933
aF0.207
aF0.2051
aF0.1867
aF0.1975
aF0.1928
aF0.1974
aF0.199
aF0.1922
aF0.2035
aF0.1965
aF0.1956
aF0.2048
aF0.1957
aF0.2029
aF0.1915
aF0.1967
aF0.201
aF0.1939
aF0.2005
aF0.1953
aF0.1908
aF0.2012
aF0.1923
aF0.1987
aF0.1993
aF0.1966
aF0.2023
aF0.1944
aF0.1986
aF0.2056
aF0.1943
aF0.2002
aF0.1902
aF0.2079
aF0.1936
aF0.203
aF0.2036
aF0.1944
aF0.206
aF0.2004
aF0.1862
aF0.204
aF0.191
aF0.2
aF0.1948
aF0.1886
aF0.1969
aF0.1889
aF0.2016
aF0.1926
aF0.1943
aF0.1974
aF0.1938
aF0.1934
aF0.2015
aF0.2
aF0.2075
aF0.1891
aF0.1965
aF0.1986
aF0.1993
aF0.1995
aF0.1983
aF0.2014
aF0.1882
aF0.1932
aF0.1902
aF0.1898
aF0.206
aF0.1988
aF0.2017
aF0.1952
aF0.1935
aF0.2027
aF0.1932
aF0.1996
aF0.1955
aF0.1903
aF0.2042
aF0.1938
aF0.1975
aF0.194
aF0.1928
aF0.1986
aF0.1946
aF0.1971
aF0.2046
aF0.1933
aF0.2087
aF0.1921
aF0.2003
aF0.196
aF0.19
aF0.2031
aF0.1922
aF0.1918
aF0.1983
aF0.1893
aF0.1974
aF0.1941
aF0.1917
aF0.2059
aF0.1951
aF0.1952
aF0.2016
aF0.1907
aF0.1898
aF0.203
aF0.2044
aF0.192
aF0.1912
aF0.1963
aF0.1895
aF0.2056
aF0.195
aF0.1881
aF0.197
aF0.1886
aF0.1988
aF0.1922
aF0.191
aF0.1942
aF0.1939
aF0.2069
aF0.1976
aF0.1922
aF0.1946
aF0.1923
aF0.1944
aF0.198
aF0.1924
aF0.1962
aF0.1879
aF0.2018
aF0.1942
aF0.1956
aF0.1954
aF0.1824
aF0.2066
aF0.1946
aF0.1971
aF0.197
aF0.1892
aF0.1972
aF0.1938
aF0.1934
aF0.1946
aF0.1951
aF0.2017
aF0.2012
aF0.1969
aF0.1918
aF0.1937
aF0.2049
aF0.1901
aF0.1971
aF0.1932
aF0.1912
aF0.2036
aF0.1863
aF0.2046
aF0.199
aF0.1916
aF0.1948
aF0.1904
aF0.1947
aF0.2007
aF0.1949
aF0.1921
aF0.1913
aF0.1899
aF0.1987
aF0.1924
aF0.1928
aF0.1984
aF0.1885
aF0.194
aF0.1931
aF0.1965
aF0.1944
aF0.1915
aF0.1952
aF0.1836
aF0.2046
aF0.1987
aF0.2015
aF0.2011
aF0.1888
aF0.1962
aF0.1947
aF0.1879
aF0.1924
aF0.1891
aF0.1982
aF0.1967
aF0.1857
aF0.1955
aF0.1872
aF0.2057
aF0.1942
aF0.1998
aF0.1941
aF0.1956
aF0.2026
aF0.195
aF0.1863
aF0.1963
aF0.1886
aF0.2006
aF0.1927
aF0.199
aF0.2016
aF0.1966
aF0.1973
aF0.1954
aF0.1929
aF0.2006
aF0.192
aF0.2002
aF0.1956
aF0.1928
aF0.1967
aF0.1936
aF0.2057
aF0.1925
aF0.1949
aF0.1959
aF0.1939
aF0.1922
aF0.1967
aF0.1908
aF0.1993
aF0.1954
aF0.1963
aF0.1859
aF0.1914
aF0.1946
aF0.1903
aF0.1917
aF0.1947
aF0.1872
aF0.195
aF0.1937
aF0.2093
aF0.2003
aF0.1926
aF0.1874
aF0.19
aF0.1997
aF0.1875
aF0.189
aF0.1904
aF0.1856
aF0.1941
aF0.1954
aF0.19
aF0.1902
aF0.1892
aF0.1978
aF0.1923
aF0.1974
aF0.1941
aF0.1904
aF0.2049
aF0.1993
aF0.1938
aF0.1953
aF0.1914
aF0.1952
aF0.192
aF0.1942
aF0.1976
aF0.1919
aF0.1984
aF0.1885
aF0.1956
aF0.1894
aF0.1844
aF0.1955
aF0.1877
aF0.1973
aF0.1953
aF0.1932
aF0.1962
aF0.1933
aF0.189
aF0.1955
aF0.1853
aF0.1949
aF0.1928
aF0.1886
aF0.1892
aF0.1832
aF0.201
aF0.1988
aF0.1951
aF0.1944
aF0.1879
aF0.2004
aF0.1897
aF0.1887
aF0.1966
aF0.184
aF0.1988
aF0.1935
aF0.1915
aF0.1945
aF0.1851
aF0.194
aF0.1884
aF0.1858
aF0.1867
aF0.1886
aF0.1936
aF0.1917
aF0.1906
aF0.1995
aF0.1901
aF0.1969
aF0.195
aF0.1923
aF0.1915
aF0.1924
aF0.1931
aF0.1981
aF0.2003
aF0.1913
aF0.1901
aF0.1979
aF0.1905
aF0.1904
aF0.1959
aF0.185
aF0.1958
aF0.1895
a.