(lp0
F0.7851
aF0.6896
aF0.6313
aF0.6049
aF0.5849
aF0.568
aF0.5566
aF0.538
aF0.5156
aF0.5153
aF0.5012
aF0.4972
aF0.4783
aF0.4711
aF0.4618
aF0.4652
aF0.4543
aF0.4478
aF0.4398
aF0.4222
aF0.4338
aF0.4356
aF0.4152
aF0.4227
aF0.4025
aF0.4049
aF0.4074
aF0.4048
aF0.402
aF0.389
aF0.3859
aF0.3922
aF0.3819
aF0.3977
aF0.3676
aF0.3714
aF0.3764
aF0.3683
aF0.3729
aF0.3667
aF0.3703
aF0.3612
aF0.3537
aF0.354
aF0.3559
aF0.3599
aF0.352
aF0.3443
aF0.3542
aF0.3513
aF0.349
aF0.343
aF0.343
aF0.3509
aF0.3313
aF0.3459
aF0.3416
aF0.3278
aF0.344
aF0.337
aF0.331
aF0.3375
aF0.3339
aF0.3378
aF0.3333
aF0.3279
aF0.3285
aF0.321
aF0.3291
aF0.3207
aF0.3246
aF0.3239
aF0.3121
aF0.327
aF0.321
aF0.325
aF0.3175
aF0.3037
aF0.3189
aF0.3138
aF0.3158
aF0.3105
aF0.3052
aF0.3128
aF0.3118
aF0.3107
aF0.3067
aF0.3012
aF0.3122
aF0.3089
aF0.313
aF0.311
aF0.3032
aF0.3074
aF0.3014
aF0.2989
aF0.3071
aF0.299
aF0.2998
aF0.3006
aF0.3029
aF0.3018
aF0.2959
aF0.3084
aF0.3012
aF0.2986
aF0.3017
aF0.2956
aF0.3006
aF0.2873
aF0.3013
aF0.2943
aF0.2842
aF0.2956
aF0.2876
aF0.2903
aF0.2907
aF0.2855
aF0.2888
aF0.2842
aF0.2913
aF0.284
aF0.2719
aF0.2934
aF0.2877
aF0.2858
aF0.2864
aF0.2737
aF0.2901
aF0.2737
aF0.2916
aF0.2847
aF0.277
aF0.284
aF0.2755
aF0.2822
aF0.2802
aF0.2703
aF0.2853
aF0.2789
aF0.2884
aF0.2774
aF0.2703
aF0.281
aF0.2671
aF0.2729
aF0.2825
aF0.269
aF0.2787
aF0.2685
aF0.281
aF0.2778
aF0.2695
aF0.2802
aF0.2641
aF0.2695
aF0.273
aF0.2764
aF0.2738
aF0.272
aF0.2734
aF0.27
aF0.2669
aF0.2784
aF0.2694
aF0.2745
aF0.2742
aF0.2638
aF0.2762
aF0.2744
aF0.2727
aF0.2677
aF0.2652
aF0.2795
aF0.2627
aF0.2673
aF0.2696
aF0.2626
aF0.2756
aF0.2574
aF0.2669
aF0.2623
aF0.2607
aF0.2728
aF0.266
aF0.2621
aF0.2654
aF0.2557
aF0.2687
aF0.2605
aF0.2579
aF0.2626
aF0.258
aF0.263
aF0.2596
aF0.2608
aF0.2633
aF0.2595
aF0.261
aF0.2518
aF0.2585
aF0.2599
aF0.2527
aF0.2606
aF0.259
aF0.25
aF0.2581
aF0.255
aF0.2676
aF0.2545
aF0.2569
aF0.2678
aF0.2439
aF0.2615
aF0.2474
aF0.2577
aF0.2574
aF0.2429
aF0.2617
aF0.258
aF0.2554
aF0.2588
aF0.2537
aF0.2524
aF0.2519
aF0.2562
aF0.2557
aF0.2506
aF0.2581
aF0.2511
aF0.2579
aF0.2569
aF0.2417
aF0.2538
aF0.2483
aF0.2532
aF0.2545
aF0.2408
aF0.255
aF0.2453
aF0.2467
aF0.2604
aF0.2459
aF0.2569
aF0.2438
aF0.2546
aF0.2483
aF0.2441
aF0.2487
aF0.2449
aF0.2469
aF0.2491
aF0.2354
aF0.2549
aF0.2437
aF0.2458
aF0.2561
aF0.2434
aF0.2496
aF0.2442
aF0.2569
aF0.2491
aF0.2369
aF0.2471
aF0.2421
aF0.2424
aF0.2416
aF0.2387
aF0.2468
aF0.2404
aF0.2428
aF0.2458
aF0.2377
aF0.2504
aF0.2413
aF0.2529
aF0.248
aF0.234
aF0.2436
aF0.2407
aF0.239
aF0.2477
aF0.2407
aF0.2588
aF0.2359
aF0.249
aF0.2453
aF0.229
aF0.2391
aF0.2352
aF0.2411
aF0.2411
aF0.2396
aF0.2486
aF0.233
aF0.2487
aF0.2401
aF0.2355
aF0.2495
aF0.2317
aF0.247
aF0.2405
aF0.2325
aF0.2442
aF0.2412
aF0.241
aF0.2347
aF0.2276
aF0.2484
aF0.2338
aF0.241
aF0.2449
aF0.2318
aF0.2403
aF0.2382
aF0.2396
aF0.239
aF0.2294
aF0.2445
aF0.2398
aF0.2355
aF0.2411
aF0.237
aF0.2352
aF0.2299
aF0.2363
aF0.2441
aF0.2331
aF0.2407
aF0.2342
aF0.2388
aF0.2369
aF0.2304
aF0.2389
aF0.2344
aF0.2421
aF0.2366
aF0.2349
aF0.2359
aF0.2303
aF0.2398
aF0.2322
aF0.2279
aF0.2386
aF0.2306
aF0.2363
aF0.2403
aF0.2339
aF0.2371
aF0.2399
aF0.2322
aF0.2328
aF0.2357
aF0.234
aF0.2317
aF0.2351
aF0.2398
aF0.2266
aF0.2407
aF0.2321
aF0.2359
aF0.2288
aF0.2264
aF0.2345
aF0.2326
aF0.2307
aF0.2317
aF0.2236
aF0.2386
aF0.2366
aF0.2186
aF0.2298
aF0.225
aF0.2369
aF0.223
aF0.2393
aF0.2345
aF0.2247
aF0.2443
aF0.2315
aF0.2239
aF0.2356
aF0.224
aF0.2367
aF0.2287
aF0.2286
aF0.2243
aF0.2302
aF0.2305
aF0.2299
aF0.232
aF0.2304
aF0.2267
aF0.2376
aF0.2207
aF0.2237
aF0.2339
aF0.2227
aF0.2311
aF0.2205
aF0.2275
aF0.2325
aF0.2188
aF0.234
aF0.2292
aF0.2307
aF0.2289
aF0.222
aF0.2343
aF0.2284
aF0.2275
aF0.2328
aF0.2244
aF0.2332
aF0.2225
aF0.2314
aF0.2287
aF0.2256
aF0.2252
aF0.2237
aF0.2265
aF0.2218
aF0.2192
aF0.231
aF0.2141
aF0.2213
aF0.2244
aF0.215
aF0.2382
aF0.22
aF0.2302
aF0.2223
aF0.2199
aF0.2291
aF0.2253
aF0.2292
aF0.2258
aF0.2153
aF0.2297
aF0.2226
aF0.2223
aF0.2203
aF0.224
aF0.2269
aF0.2261
aF0.2224
aF0.2251
aF0.2155
aF0.2244
aF0.2167
aF0.2196
aF0.2201
aF0.2223
aF0.2337
aF0.2223
aF0.2223
aF0.227
aF0.2195
aF0.2317
aF0.2226
aF0.2227
aF0.232
aF0.2169
aF0.2317
aF0.2185
aF0.2183
aF0.2269
aF0.2217
aF0.2353
aF0.2138
aF0.2201
aF0.2182
aF0.2163
aF0.2374
aF0.217
aF0.2196
aF0.2146
aF0.2127
aF0.225
aF0.2156
aF0.2152
aF0.2178
aF0.2205
aF0.2297
aF0.2192
aF0.2207
aF0.2244
aF0.2029
aF0.2234
aF0.2173
aF0.2189
aF0.225
aF0.2136
aF0.22
aF0.2135
aF0.2229
aF0.2193
aF0.2222
aF0.2241
aF0.2128
aF0.2197
aF0.2277
aF0.2202
aF0.2301
aF0.2132
aF0.2195
aF0.2202
aF0.2177
aF0.2212
aF0.2148
aF0.2173
aF0.2186
aF0.2103
aF0.2227
aF0.2157
aF0.2155
aF0.2189
aF0.2135
aF0.225
aF0.2114
aF0.2233
aF0.2301
aF0.2135
aF0.2206
aF0.2158
aF0.2243
aF0.221
aF0.2141
aF0.2286
aF0.2085
aF0.2179
aF0.2209
aF0.2211
aF0.223
aF0.2186
aF0.2145
aF0.2204
aF0.2196
aF0.2255
aF0.2129
aF0.2117
aF0.2174
aF0.2072
aF0.2221
aF0.2097
aF0.2102
aF0.2134
aF0.2106
aF0.2225
aF0.2161
aF0.213
aF0.2177
aF0.2168
aF0.2189
aF0.2132
aF0.2194
aF0.2273
aF0.2102
aF0.2228
aF0.2088
aF0.2116
aF0.2223
aF0.2082
aF0.226
aF0.2184
aF0.2153
aF0.219
aF0.2137
aF0.2207
aF0.2158
aF0.2172
aF0.2217
aF0.2146
aF0.2193
aF0.2111
aF0.2175
aF0.2187
aF0.209
aF0.2191
aF0.2093
aF0.2159
aF0.219
aF0.2088
aF0.2196
aF0.2167
aF0.2142
aF0.2163
aF0.2064
aF0.2175
aF0.2142
aF0.2097
aF0.2117
aF0.2151
aF0.2163
aF0.2171
aF0.2177
aF0.2173
aF0.206
aF0.2198
aF0.2141
aF0.2121
aF0.2209
aF0.2022
aF0.2246
aF0.2085
aF0.2076
aF0.2241
aF0.2037
aF0.2189
aF0.2035
aF0.2098
aF0.2131
aF0.2026
aF0.2194
aF0.2114
aF0.2071
aF0.2144
aF0.2127
aF0.2221
aF0.2078
aF0.2173
aF0.2081
aF0.208
aF0.2169
aF0.2106
aF0.2122
aF0.213
aF0.2064
aF0.2277
aF0.2088
aF0.2143
aF0.2134
aF0.2082
aF0.2181
aF0.2101
aF0.2155
aF0.2176
aF0.2065
aF0.2156
aF0.2102
aF0.2087
aF0.2047
aF0.2051
aF0.218
aF0.2066
aF0.2026
aF0.206
aF0.2021
aF0.2182
aF0.2098
aF0.2152
aF0.2137
aF0.2132
aF0.2183
aF0.208
aF0.2086
aF0.2138
aF0.2038
aF0.212
aF0.1996
aF0.2068
aF0.2151
aF0.2098
aF0.2153
aF0.2076
aF0.2053
aF0.2098
aF0.2073
aF0.2165
aF0.2034
aF0.2091
aF0.2148
aF0.2095
aF0.2098
aF0.2198
aF0.2091
aF0.2124
aF0.1984
aF0.2174
aF0.2039
aF0.2052
aF0.2156
aF0.2022
aF0.22
aF0.2102
aF0.2038
aF0.2135
aF0.204
aF0.2107
aF0.2028
aF0.2047
aF0.2207
aF0.2023
aF0.2161
aF0.2015
aF0.205
aF0.2111
aF0.2024
aF0.2136
aF0.2099
aF0.2083
aF0.2101
aF0.2062
aF0.2154
aF0.2049
aF0.2033
aF0.209
aF0.2017
aF0.2126
aF0.2096
aF0.2039
aF0.2072
aF0.2006
aF0.221
aF0.2043
aF0.2087
aF0.2031
aF0.2085
aF0.2173
aF0.2135
aF0.2035
aF0.2046
aF0.2031
aF0.2119
aF0.2106
aF0.2194
aF0.2138
aF0.2019
aF0.2072
aF0.2141
aF0.2077
aF0.215
aF0.21
aF0.2128
aF0.1989
aF0.2102
aF0.2145
aF0.1969
aF0.2077
aF0.2042
aF0.2056
aF0.2118
aF0.2017
aF0.2116
aF0.2121
aF0.2085
aF0.2056
aF0.2025
aF0.2161
aF0.2023
aF0.2106
aF0.2049
aF0.1976
aF0.2102
aF0.1951
aF0.2043
aF0.2066
aF0.2024
aF0.2143
aF0.2017
aF0.2075
aF0.2114
aF0.2056
aF0.2121
aF0.2016
aF0.2055
aF0.215
aF0.1983
aF0.2022
aF0.2092
aF0.1995
aF0.2138
aF0.1962
aF0.2125
aF0.2036
aF0.2079
aF0.2062
aF0.2039
aF0.2117
aF0.2024
aF0.199
aF0.2075
aF0.1941
aF0.2166
aF0.1982
aF0.2032
aF0.2114
aF0.2012
aF0.2134
aF0.2008
aF0.2048
aF0.1993
aF0.2006
aF0.2114
aF0.1973
aF0.2104
aF0.1982
aF0.2026
aF0.2103
aF0.1971
aF0.2023
aF0.216
aF0.2069
aF0.2087
aF0.2061
aF0.2038
aF0.2053
aF0.2019
aF0.2076
aF0.2011
aF0.1979
aF0.2077
aF0.1953
aF0.2142
aF0.2048
aF0.2066
aF0.2105
aF0.1951
aF0.2058
aF0.1992
aF0.2068
aF0.203
aF0.2004
aF0.2132
aF0.2074
aF0.206
aF0.2129
aF0.1923
aF0.2126
aF0.1937
aF0.2005
aF0.2075
aF0.1995
aF0.2104
aF0.2019
aF0.2022
aF0.211
aF0.2044
aF0.2098
aF0.1994
aF0.2021
aF0.2057
aF0.1986
aF0.2129
aF0.2038
aF0.2014
aF0.2092
aF0.1958
aF0.2061
aF0.2069
aF0.2019
aF0.2039
aF0.206
aF0.2007
aF0.1986
aF0.2023
aF0.2055
aF0.1977
aF0.2094
aF0.2011
aF0.204
aF0.2033
aF0.202
aF0.2097
aF0.19585
aF0.1985
aF0.1988
aF0.2023
aF0.208
aF0.1964
aF0.1976
aF0.2037
aF0.1979
aF0.2107
aF0.1964
aF0.198
aF0.2084
aF0.1975
aF0.2062
aF0.2049
aF0.1984
aF0.1941
aF0.2037
aF0.2085
aF0.1936
aF0.1974
aF0.2065
aF0.1986
aF0.2043
aF0.2078
aF0.2054
aF0.205
aF0.1996
aF0.207
aF0.1972
aF0.1976
aF0.2015
aF0.1967
aF0.2032
aF0.2012
aF0.2139
aF0.1995
aF0.1972
aF0.2081
aF0.1975
aF0.1991
aF0.2015
aF0.1961
aF0.2051
aF0.194
aF0.2006
aF0.2118
aF0.1969
aF0.2079
aF0.2015
aF0.2054
aF0.2111
aF0.1953
aF0.2061
aF0.2013
aF0.2045
aF0.2048
aF0.2013
aF0.1999
aF0.1965
aF0.1965
aF0.1949
aF0.2033
aF0.2103
aF0.1999
aF0.196
aF0.2031
aF0.2006
aF0.2004
aF0.1973
aF0.2029
aF0.2027
aF0.1992
aF0.2087
aF0.2052
aF0.2046
aF0.2
aF0.2042
aF0.1978
aF0.2003
aF0.203
aF0.2002
aF0.1941
aF0.2074
aF0.2012
aF0.1971
aF0.1986
aF0.1924
aF0.2109
aF0.1948
aF0.1989
aF0.2054
aF0.2024
aF0.2021
aF0.2026
aF0.1962
aF0.2037
aF0.1885
aF0.2049
aF0.202
aF0.2001
aF0.2051
aF0.1982
aF0.1972
aF0.1962
aF0.1987
aF0.2076
aF0.1868
aF0.2004
aF0.198
aF0.1984
aF0.2038
aF0.1922
aF0.201
aF0.2035
aF0.2025
aF0.2048
aF0.1908
aF0.21
aF0.1903
aF0.1995
aF0.1978
aF0.1916
aF0.204
aF0.1953
aF0.2011
aF0.2052
aF0.194
aF0.1993
aF0.1958
aF0.192
aF0.2003
aF0.1928
aF0.2076
aF0.1923
aF0.2016
aF0.2041
aF0.1981
aF0.2077
aF0.1938
aF0.1949
aF0.2001
aF0.1971
aF0.209
aF0.1969
aF0.202
aF0.2012
aF0.1923
aF0.2092
aF0.1908
aF0.206
aF0.195
aF0.1896
aF0.2059
aF0.1949
aF0.1923
aF0.2009
aF0.2001
aF0.2072
aF0.1947
aF0.1957
aF0.2006
aF0.1889
aF0.2051
aF0.202
aF0.2012
aF0.197
aF0.1882
aF0.2053
aF0.1979
aF0.1973
aF0.196
aF0.1993
aF0.2022
aF0.2006
aF0.1938
aF0.2016
aF0.1958
aF0.2046
aF0.1952
aF0.1968
aF0.2048
aF0.1864
aF0.2035
aF0.2004
aF0.1969
aF0.1952
aF0.194
aF0.1989
aF0.1872
aF0.2037
aF0.1941
aF0.1969
aF0.1997
aF0.1976
aF0.1971
aF0.1992
aF0.1916
aF0.2013
aF0.1992
aF0.1974
aF0.2014
aF0.1935
aF0.2058
aF0.19
aF0.1993
aF0.2
aF0.1925
aF0.205
aF0.1999
aF0.1948
aF0.2012
aF0.198
aF0.2023
aF0.1906
aF0.1905
aF0.1961
aF0.1969
aF0.1994
aF0.1965
aF0.2016
aF0.1969
aF0.1912
aF0.2015
aF0.1964
aF0.1893
aF0.1941
aF0.1915
aF0.1977
aF0.1986
aF0.1994
aF0.2055
aF0.1898
aF0.2045
aF0.1966
aF0.1922
aF0.1977
aF0.191
aF0.201
aF0.1941
aF0.1966
aF0.203
aF0.1903
aF0.1989
aF0.2014
aF0.1956
aF0.1955
aF0.1906
aF0.1937
aF0.1999
aF0.1924
aF0.191
aF0.1842
aF0.1973
aF0.1966
aF0.1988
aF0.1985
aF0.1885
aF0.2011
aF0.1885
aF0.1981
aF0.1984
aF0.1851
aF0.2062
aF0.1963
aF0.1935
aF0.195
aF0.189
aF0.1993
aF0.1911
aF0.1913
aF0.1957
aF0.2004
aF0.2031
aF0.1993
aF0.1951
aF0.198
aF0.1929
aF0.2027
aF0.19
aF0.1943
aF0.2025
aF0.1899
aF0.197
aF0.1954
aF0.1884
aF0.1983
aF0.2027
aF0.2054
aF0.1926
aF0.2012
aF0.196
aF0.1877
aF0.2031
aF0.1983
aF0.1973
aF0.198
aF0.1878
aF0.2035
aF0.1919
aF0.1976
aF0.198
aF0.1946
aF0.1996
aF0.1959
aF0.1942
aF0.2009
aF0.19
aF0.1985
aF0.1962
aF0.1854
aF0.2022
aF0.201
aF0.1918
aF0.1916
aF0.1933
aF0.1952
aF0.1876
aF0.2036
aF0.1893
aF0.1847
aF0.1959
aF0.1969
aF0.2006
aF0.1906
aF0.1997
aF0.1877
aF0.1905
aF0.2016
aF0.1922
aF0.1896
aF0.2023
aF0.1887
aF0.2022
aF0.1933
aF0.2
aF0.1967
aF0.1924
aF0.1979
aF0.196
aF0.1902
aF0.1965
aF0.1907
aF0.2031
aF0.1889
aF0.1933
aF0.1994
aF0.1887
aF0.1997
aF0.1881
aF0.1943
aF0.1942
aF0.1873
aF0.2028
aF0.1927
aF0.1878
aF0.2008
aF0.1823
aF0.2036
aF0.1911
aF0.1934
aF0.1951
aF0.1924
aF0.1965
aF0.1924
aF0.2002
aF0.1919
aF0.1859
aF0.1948
aF0.1898
aF0.19
aF0.198
aF0.1833
aF0.2018
aF0.2034
aF0.191
aF0.1966
aF0.1898
aF0.1956
aF0.1881
aF0.1891
aF0.1973
aF0.1924
aF0.2014
aF0.1971
aF0.19
aF0.194
aF0.1912
aF0.199
aF0.1919
aF0.1942
aF0.188
aF0.1871
aF0.1976
aF0.1951
aF0.193
aF0.1935
aF0.1902
aF0.196
aF0.2027
aF0.1993
aF0.1933
aF0.19
aF0.1963
aF0.1888
aF0.19
aF0.1949
aF0.1859
aF0.1972
aF0.1894
aF0.1896
aF0.1914
aF0.188
aF0.1987
aF0.1898
aF0.2018
aF0.1894
aF0.188
aF0.2022
aF0.1928
aF0.1937
aF0.1945
aF0.1879
aF0.1987
aF0.189
aF0.1882
aF0.1972
aF0.1874
aF0.1946
aF0.191
aF0.1976
aF0.1981
aF0.1841
aF0.203
aF0.1877
aF0.188
aF0.1941
aF0.1903
aF0.2062
aF0.1889
aF0.1866
aF0.1991
aF0.1862
aF0.1975
aF0.1892
aF0.1985
aF0.1989
aF0.1828
aF0.1972
aF0.1872
aF0.1821
aF0.1983
aF0.1881
aF0.2015
aF0.1886
aF0.1913
aF0.1973
aF0.1855
aF0.1989
aF0.1894
aF0.1941
aF0.1933
aF0.1827
aF0.1917
aF0.1873
aF0.1949
aF0.1981
aF0.1813
aF0.2018
aF0.1888
aF0.1916
aF0.1984
aF0.1868
aF0.1932
aF0.1924
aF0.1916
aF0.1937
aF0.1887
aF0.2039
aF0.1862
aF0.1899
aF0.198
aF0.1871
aF0.1917
aF0.1894
aF0.1866
aF0.1897
aF0.1848
aF0.2039
aF0.1944
aF0.1948
aF0.1958
aF0.1873
aF0.1956
aF0.1876
aF0.1898
aF0.1981
aF0.1888
aF0.1962
aF0.1869
aF0.1821
aF0.1971
aF0.1868
aF0.1946
aF0.1839
aF0.1887
aF0.1951
aF0.1856
aF0.2037
aF0.1897
aF0.1889
aF0.19
aF0.1918
aF0.2044
aF0.1912
aF0.1971
aF0.1926
aF0.1848
aF0.1952
aF0.1927
aF0.1896
aF0.1901
aF0.1917
aF0.1968
aF0.1829
aF0.1919
aF0.2015
aF0.1909
aF0.1989
aF0.1925
aF0.1948
aF0.1997
aF0.1843
aF0.2005
aF0.187
aF0.1883
aF0.1864
aF0.1862
aF0.1936
aF0.1822
aF0.1905
aF0.1869
aF0.1784
aF0.1998
aF0.1889
aF0.1899
aF0.2001
aF0.1852
aF0.198
aF0.1849
aF0.1885
aF0.1914
aF0.1894
aF0.1861
aF0.1931
aF0.1847
aF0.1998
aF0.1808
aF0.1987
aF0.1935
aF0.1946
aF0.1934
aF0.1931
aF0.203
aF0.1905
aF0.1866
aF0.1905
aF0.188
aF0.1994
aF0.1862
aF0.1912
aF0.2001
aF0.1859
aF0.1932
aF0.1891
aF0.1947
aF0.1905
aF0.182
aF0.194
aF0.1898
aF0.1909
aF0.1958
aF0.1822
aF0.1961
aF0.1917
aF0.1858
aF0.2015
aF0.1865
aF0.1967
aF0.1824
aF0.1879
aF0.1892
aF0.1829
aF0.1984
aF0.1854
aF0.1959
aF0.1982
aF0.1846
aF0.198
aF0.1907
aF0.1851
aF0.1953
aF0.1854
aF0.1933
aF0.1923
aF0.1912
aF0.1932
aF0.1922
aF0.1885
aF0.1874
aF0.1864
aF0.1973
aF0.1828
aF0.1906
aF0.1888
aF0.1898
aF0.1893
aF0.1898
aF0.1971
aF0.1879
aF0.1879
aF0.1855
aF0.1904
aF0.191
aF0.1847
aF0.1908
aF0.1846
aF0.1919
aF0.1938
aF0.1936
aF0.1878
aF0.1852
aF0.1885
aF0.1915
aF0.1878
aF0.1941
aF0.1931
aF0.19
aF0.1984
aF0.1817
aF0.189
aF0.1925
aF0.1896
aF0.1951
aF0.1934
aF0.1945
aF0.1966
aF0.194
aF0.1926
aF0.1878
aF0.187
aF0.1932
aF0.1878
aF0.1916
aF0.1883
aF0.1842
aF0.1931
aF0.1837
aF0.1883
aF0.1892
aF0.1918
aF0.1913
aF0.1863
aF0.1907
aF0.1813
aF0.1897
aF0.1894
aF0.1778
aF0.1895
aF0.1754
aF0.193
aF0.1911
aF0.1838
aF0.1947
aF0.1786
aF0.1898
aF0.1933
aF0.1857
aF0.1919
aF0.1845
aF0.1906
aF0.1874
aF0.1914
aF0.1908
aF0.1834
a.