(lp0
F0.8739
aF0.7702
aF0.7072
aF0.6629
aF0.6339
aF0.5969
aF0.5581
aF0.5329
aF0.5054
aF0.4933
aF0.4706
aF0.4532
aF0.4143
aF0.3991
aF0.3844
aF0.3797
aF0.3654
aF0.3917
aF0.3498
aF0.3655
aF0.3433
aF0.3435
aF0.3278
aF0.334
aF0.3018
aF0.3114
aF0.3008
aF0.3015
aF0.2874
aF0.3009
aF0.2772
aF0.2923
aF0.3025
aF0.2786
aF0.2883
aF0.2845
aF0.2638
aF0.2684
aF0.2664
aF0.2652
aF0.2619
aF0.261
aF0.2567
aF0.2528
aF0.2551
aF0.2437
aF0.2499
aF0.2524
aF0.2368
aF0.2396
aF0.2471
aF0.2383
aF0.2295
aF0.2341
aF0.2313
aF0.2259
aF0.2324
aF0.2339
aF0.2219
aF0.2331
aF0.2223
aF0.2187
aF0.2253
aF0.2201
aF0.2115
aF0.2188
aF0.2082
aF0.2102
aF0.2077
aF0.2138
aF0.2091
aF0.2474
aF0.2119
aF0.2138
aF0.212
aF0.2003
aF0.1941
aF0.211
aF0.2029
aF0.2373
aF0.2024
aF0.2066
aF0.1996
aF0.23
aF0.1909
aF0.1986
aF0.193
aF0.2238
aF0.1916
aF0.1994
aF0.188
aF0.2277
aF0.1835
aF0.1943
aF0.1798
aF0.213
aF0.179
aF0.1847
aF0.1839
aF0.2145
aF0.1849
aF0.1961
aF0.1828
aF0.209
aF0.1811
aF0.1824
aF0.1751
aF0.203
aF0.1747
aF0.1846
aF0.1685
aF0.1946
aF0.1726
aF0.18
aF0.1762
aF0.1988
aF0.1726
aF0.1803
aF0.1762
aF0.1919
aF0.1765
aF0.175
aF0.169
aF0.19
aF0.1672
aF0.1701
aF0.1681
aF0.1901
aF0.1676
aF0.1734
aF0.163
aF0.1908
aF0.1632
aF0.1635
aF0.1666
aF0.1825
aF0.1639
aF0.1663
aF0.1655
aF0.173
aF0.1582
aF0.1844
aF0.1608
aF0.1796
aF0.1626
aF0.1724
aF0.1568
aF0.1738
aF0.1586
aF0.1606
aF0.1613
aF0.1799
aF0.1662
aF0.1607
aF0.148
aF0.1724
aF0.1543
aF0.1642
aF0.1586
aF0.1721
aF0.1511
aF0.153
aF0.1506
aF0.1678
aF0.1531
aF0.1595
aF0.1429
aF0.1517
aF0.1702
aF0.1968
aF0.1543
aF0.1493
aF0.1514
aF0.1685
aF0.193
aF0.1532
aF0.1513
aF0.1507
aF0.1647
aF0.1807
aF0.1481
aF0.1446
aF0.1428
aF0.1597
aF0.1789
aF0.1533
aF0.1406
aF0.1452
aF0.1615
aF0.1731
aF0.1439
aF0.1475
aF0.1472
aF0.1542
aF0.1668
aF0.1681
aF0.155
aF0.1406
aF0.1626
aF0.1669
aF0.1452
aF0.1504
aF0.1455
aF0.1597
aF0.168
aF0.1477
aF0.1386
aF0.1396
aF0.1644
aF0.1639
aF0.1416
aF0.1454
aF0.1448
aF0.1521
aF0.157
aF0.146
aF0.1425
aF0.1367
aF0.1479
aF0.1591
aF0.1439
aF0.1433
aF0.1424
aF0.1505
aF0.1583
aF0.1355
aF0.148
aF0.1422
aF0.1536
aF0.1563
aF0.1457
aF0.1426
aF0.1424
aF0.1447
aF0.1519
aF0.1342
aF0.1407
aF0.1473
aF0.1482
aF0.153
aF0.1405
aF0.1405
aF0.1313
aF0.1435
aF0.1504
aF0.1351
aF0.1341
aF0.136
aF0.1463
aF0.1432
aF0.1377
aF0.1374
aF0.1371
aF0.1509
aF0.1488
aF0.1325
aF0.1346
aF0.1321
aF0.142
aF0.1445
aF0.1344
aF0.1391
aF0.1328
aF0.1433
aF0.1464
aF0.1412
aF0.1371
aF0.1339
aF0.1479
aF0.1424
aF0.133
aF0.1344
aF0.1328
aF0.1345
aF0.1374
aF0.137
aF0.1352
aF0.1295
aF0.1344
aF0.1365
aF0.1311
aF0.1344
aF0.1311
aF0.1397
aF0.1396
aF0.1354
aF0.1334
aF0.1307
aF0.1359
aF0.1369
aF0.1306
aF0.1332
aF0.1244
aF0.1368
aF0.1385
aF0.1328
aF0.1183
aF0.1087
aF0.1117
aF0.1054
aF0.1059
aF0.1076
aF0.1011
aF0.1102
aF0.1022
aF0.1003
aF0.1033
aF0.0982
aF0.1024
aF0.1006
aF0.0973
aF0.0986
aF0.0972
aF0.1039
aF0.0988
aF0.0975
aF0.1006
aF0.0951
aF0.1005
aF0.0989
aF0.095
aF0.0957
aF0.0931
aF0.1011
aF0.0969
aF0.1019
aF0.0992
aF0.0965
aF0.0998
aF0.0963
aF0.0945
aF0.0937
aF0.0918
aF0.0956
aF0.0957
aF0.0923
aF0.0946
aF0.0954
aF0.0965
aF0.0908
aF0.089
aF0.0944
aF0.0896
aF0.0978
aF0.0917
aF0.0906
aF0.094
aF0.09
aF0.0954
aF0.0966
aF0.0906
aF0.0923
aF0.0895
aF0.0916
aF0.0934
aF0.0914
aF0.0916
aF0.0898
aF0.0966
aF0.0917
aF0.0865
aF0.0913
aF0.0874
aF0.0938
aF0.0926
aF0.0913
aF0.0885
aF0.0874
aF0.0898
aF0.0874
aF0.09
aF0.0903
aF0.0844
aF0.0899
aF0.0935
aF0.089
aF0.0892
aF0.0879
aF0.0929
aF0.0887
aF0.0897
aF0.0839
aF0.0861
aF0.0923
aF0.0896
aF0.0867
aF0.0891
aF0.0859
aF0.0911
aF0.0932
aF0.0868
aF0.087
aF0.0851
aF0.0923
aF0.0899
aF0.0911
aF0.0908
aF0.0857
aF0.0928
aF0.0914
aF0.0869
aF0.0873
aF0.0817
aF0.091
aF0.0886
aF0.089
aF0.0844
aF0.0844
aF0.0894
aF0.0849
aF0.0861
aF0.0843
aF0.0796
aF0.0896
aF0.0886
aF0.0868
aF0.0839
aF0.0804
aF0.0875
aF0.0878
aF0.0839
aF0.0838
aF0.0807
aF0.089
aF0.0885
aF0.0861
aF0.0852
aF0.0806
aF0.0885
aF0.0858
aF0.0874
aF0.0842
aF0.0847
aF0.0887
aF0.0905
aF0.0841
aF0.0853
aF0.0806
aF0.0884
aF0.0878
aF0.0859
aF0.0811
aF0.0788
aF0.0904
aF0.0869
aF0.0829
aF0.0819
aF0.0837
aF0.085
aF0.0861
aF0.0782
aF0.0814
aF0.0798
aF0.0874
aF0.0851
aF0.0848
aF0.0822
aF0.079
aF0.0863
aF0.0878
aF0.0833
aF0.0838
aF0.0836
aF0.0864
aF0.0848
aF0.0856
aF0.087
aF0.0786
aF0.0858
aF0.0832
aF0.0797
aF0.0828
aF0.0762
aF0.0843
aF0.0852
aF0.0784
aF0.0839
aF0.0798
aF0.0849
aF0.0807
aF0.0807
aF0.0803
aF0.0784
aF0.0882
aF0.0818
aF0.084
aF0.0783
aF0.0774
aF0.0835
aF0.0851
aF0.078
aF0.0834
aF0.077
aF0.0824
aF0.0856
aF0.0812
aF0.0793
aF0.0804
aF0.0862
aF0.0821
aF0.0804
aF0.0776
aF0.0757
aF0.0845
aF0.081
aF0.0789
aF0.0807
aF0.0752
aF0.0836
aF0.0806
aF0.0811
aF0.0789
aF0.0754
aF0.0838
aF0.0759
aF0.0802
aF0.0804
aF0.0768
aF0.0826
aF0.0812
aF0.0816
aF0.0813
aF0.0741
aF0.0845
aF0.0831
aF0.0747
aF0.078
aF0.075
aF0.0816
aF0.0829
aF0.0784
aF0.0804
aF0.0719
aF0.0831
aF0.0832
aF0.0743
aF0.0826
aF0.0752
aF0.0804
aF0.082
aF0.0766
aF0.0767
aF0.0793
aF0.0817
aF0.0804
aF0.0766
aF0.078
aF0.0755
aF0.0794
aF0.079
aF0.0765
aF0.077
aF0.0738
aF0.0787
aF0.0809
aF0.0782
aF0.0767
aF0.073
aF0.0844
aF0.0794
aF0.0808
aF0.0816
aF0.0746
aF0.0802
aF0.0831
aF0.0779
aF0.0796
aF0.0748
aF0.0807
aF0.0862
aF0.0813
aF0.0772
aF0.0746
aF0.0831
aF0.0794
aF0.0765
aF0.0765
aF0.0761
aF0.0823
aF0.0798
aF0.0774
aF0.0785
aF0.0715
aF0.0808
aF0.084
a.