(lp0
F0.7867
aF0.6831
aF0.6409
aF0.6082
aF0.5789
aF0.5677
aF0.5499
aF0.5297
aF0.5102
aF0.5079
aF0.4926
aF0.4813
aF0.4631
aF0.4579
aF0.452
aF0.4461
aF0.4333
aF0.456
aF0.4271
aF0.4587
aF0.4177
aF0.4402
aF0.4021
aF0.4274
aF0.407
aF0.4043
aF0.3999
aF0.3996
aF0.3831
aF0.4047
aF0.3743
aF0.387
aF0.3977
aF0.3691
aF0.3806
aF0.3831
aF0.3545
aF0.3637
aF0.3686
aF0.3664
aF0.3633
aF0.3631
aF0.3524
aF0.3629
aF0.3551
aF0.349
aF0.3489
aF0.3497
aF0.3347
aF0.3441
aF0.3408
aF0.3315
aF0.343
aF0.3383
aF0.3312
aF0.3417
aF0.3282
aF0.3236
aF0.3282
aF0.3214
aF0.3192
aF0.3227
aF0.3276
aF0.3201
aF0.3267
aF0.317
aF0.3116
aF0.3205
aF0.3122
aF0.3152
aF0.3178
aF0.3081
aF0.3052
aF0.3178
aF0.3093
aF0.3068
aF0.3021
aF0.3147
aF0.3109
aF0.3284
aF0.3016
aF0.3054
aF0.2988
aF0.324
aF0.3008
aF0.3063
aF0.2985
aF0.3194
aF0.3006
aF0.3026
aF0.2935
aF0.3189
aF0.2934
aF0.304
aF0.2985
aF0.3081
aF0.2896
aF0.2832
aF0.2911
aF0.3108
aF0.2953
aF0.3033
aF0.2871
aF0.3042
aF0.2852
aF0.293
aF0.2787
aF0.3017
aF0.276
aF0.2828
aF0.2851
aF0.2983
aF0.2826
aF0.2784
aF0.2798
aF0.3011
aF0.2739
aF0.2829
aF0.2851
aF0.2966
aF0.2808
aF0.278
aF0.268
aF0.2869
aF0.2796
aF0.2737
aF0.2739
aF0.2861
aF0.275
aF0.2702
aF0.265
aF0.2891
aF0.267
aF0.2788
aF0.269
aF0.2836
aF0.2686
aF0.2743
aF0.2671
aF0.2777
aF0.2657
aF0.2683
aF0.2702
aF0.2742
aF0.2654
aF0.2714
aF0.2643
aF0.2831
aF0.2664
aF0.2626
aF0.263
aF0.2755
aF0.2632
aF0.2694
aF0.2625
aF0.28
aF0.2597
aF0.2657
aF0.2629
aF0.279
aF0.2559
aF0.2614
aF0.2686
aF0.2747
aF0.2575
aF0.2611
aF0.258
aF0.2635
aF0.275
aF0.2904
aF0.2619
aF0.2571
aF0.2559
aF0.2692
aF0.2773
aF0.2548
aF0.2629
aF0.2551
aF0.2699
aF0.2771
aF0.2586
aF0.2541
aF0.2507
aF0.2622
aF0.2844
aF0.2578
aF0.2599
aF0.2468
aF0.2654
aF0.2674
aF0.2548
aF0.2478
aF0.2547
aF0.2604
aF0.2717
aF0.2475
aF0.2407
aF0.2528
aF0.2609
aF0.2696
aF0.2501
aF0.2448
aF0.2441
aF0.2583
aF0.2687
aF0.2455
aF0.2518
aF0.2502
aF0.2624
aF0.2639
aF0.2464
aF0.2472
aF0.2389
aF0.2581
aF0.2602
aF0.2444
aF0.2527
aF0.243
aF0.2572
aF0.2705
aF0.2465
aF0.2477
aF0.2428
aF0.2456
aF0.2653
aF0.2484
aF0.2447
aF0.2453
aF0.2506
aF0.2633
aF0.2521
aF0.2432
aF0.2417
aF0.2507
aF0.2544
aF0.247
aF0.2484
aF0.2396
aF0.2539
aF0.2608
aF0.2439
aF0.2413
aF0.2458
aF0.2518
aF0.2554
aF0.2448
aF0.2405
aF0.2513
aF0.2448
aF0.2441
aF0.2368
aF0.2475
aF0.2378
aF0.2472
aF0.2471
aF0.2361
aF0.2407
aF0.2405
aF0.247
aF0.2448
aF0.24
aF0.2392
aF0.2396
aF0.2455
aF0.2452
aF0.2417
aF0.2413
aF0.239
aF0.2482
aF0.2457
aF0.2323
aF0.2313
aF0.2301
aF0.2427
aF0.2516
aF0.2403
aF0.2399
aF0.2352
aF0.2425
aF0.2508
aF0.231
aF0.2325
aF0.2373
aF0.2493
aF0.2455
aF0.2375
aF0.2355
aF0.2241
aF0.2373
aF0.2497
aF0.2346
aF0.2414
aF0.2352
aF0.2479
aF0.2389
aF0.2372
aF0.2339
aF0.2337
aF0.2492
aF0.2364
aF0.233
aF0.2244
aF0.2303
aF0.2452
aF0.2423
aF0.2349
aF0.2322
aF0.2268
aF0.243
aF0.2328
aF0.2353
aF0.2398
aF0.2213
aF0.2342
aF0.2423
aF0.2418
aF0.2253
aF0.2292
aF0.2422
aF0.2347
aF0.2265
aF0.2343
aF0.2329
aF0.2414
aF0.2364
aF0.2286
aF0.234
aF0.225
aF0.2374
aF0.239
aF0.2314
aF0.2352
aF0.2301
aF0.2338
aF0.2284
aF0.2286
aF0.2232
aF0.2251
aF0.2308
aF0.2283
aF0.2283
aF0.2235
aF0.2175
aF0.2364
aF0.2314
aF0.2296
aF0.2242
aF0.2263
aF0.235
aF0.2291
aF0.2221
aF0.2234
aF0.2265
aF0.2366
aF0.23
aF0.2313
aF0.2322
aF0.2305
aF0.2332
aF0.2412
aF0.2266
aF0.2269
aF0.2253
aF0.2345
aF0.2337
aF0.2274
aF0.2302
aF0.2297
aF0.2312
aF0.2314
aF0.2201
aF0.22
aF0.2198
aF0.2309
aF0.2243
aF0.2241
aF0.2242
aF0.2285
aF0.2346
aF0.2299
aF0.2222
aF0.2245
aF0.2174
aF0.2308
aF0.2313
aF0.2231
aF0.2229
aF0.2218
aF0.2289
aF0.2252
aF0.2266
aF0.2268
aF0.2242
aF0.2267
aF0.2304
aF0.2121
aF0.2258
aF0.2166
aF0.2321
aF0.2279
aF0.2114
aF0.224
aF0.2173
aF0.2266
aF0.2338
aF0.2206
aF0.2237
aF0.2127
aF0.2279
aF0.2197
aF0.2268
aF0.2275
aF0.2213
aF0.229
aF0.2249
aF0.2243
aF0.2273
aF0.218
aF0.226
aF0.2273
aF0.2262
aF0.2154
aF0.2179
aF0.2315
aF0.2233
aF0.2194
aF0.2187
aF0.2162
aF0.2274
aF0.2261
aF0.2125
aF0.2239
aF0.2128
aF0.2302
aF0.2199
aF0.2195
aF0.225
aF0.213
aF0.2223
aF0.2266
aF0.2162
aF0.2195
aF0.2084
aF0.2239
aF0.2262
aF0.2219
aF0.2172
aF0.2159
aF0.2271
aF0.219
aF0.2173
aF0.2149
aF0.2118
aF0.2205
aF0.2247
aF0.2138
aF0.2218
aF0.2209
aF0.2304
aF0.2232
aF0.2186
aF0.22
aF0.2099
aF0.2239
aF0.2197
aF0.2167
aF0.216
aF0.2187
aF0.2283
aF0.2196
aF0.2231
aF0.2155
aF0.216
aF0.2324
aF0.2195
aF0.2209
aF0.2186
aF0.2185
aF0.228
aF0.2166
aF0.2134
aF0.2188
aF0.213
aF0.22
aF0.215
aF0.2097
aF0.2204
aF0.2166
aF0.229
aF0.2175
aF0.2133
aF0.2123
aF0.2031
aF0.22
aF0.2115
aF0.2233
aF0.2227
aF0.2186
aF0.2178
aF0.2128
aF0.2143
aF0.2193
aF0.2096
aF0.2267
aF0.2205
aF0.2137
aF0.2164
aF0.216
aF0.2233
aF0.2172
aF0.2147
aF0.2164
aF0.2118
aF0.2201
aF0.2226
aF0.2087
aF0.2163
aF0.2095
aF0.2213
aF0.2093
aF0.2118
aF0.2172
aF0.2083
aF0.2141
aF0.2138
aF0.2157
aF0.2078
aF0.2066
aF0.2216
aF0.218
aF0.2154
aF0.2145
aF0.2148
aF0.2159
aF0.2197
aF0.2172
aF0.2209
aF0.2122
aF0.2217
aF0.2094
aF0.2068
aF0.2156
aF0.2117
aF0.2207
aF0.2101
aF0.2123
aF0.2156
aF0.2101
aF0.218
aF0.2118
aF0.2087
aF0.2163
aF0.2103
aF0.2159
aF0.2125
aF0.2147
aF0.2212
aF0.2122
aF0.2099
aF0.2089
aF0.2073
aF0.2165
aF0.2107
aF0.2186
aF0.2185
aF0.2112
aF0.2077
aF0.208
aF0.2215
aF0.217
aF0.2049
aF0.2117
aF0.2148
aF0.2213
aF0.2151
aF0.2121
aF0.2137
aF0.2034
aF0.2137
aF0.2071
aF0.2101
aF0.2126
aF0.2046
aF0.2144
aF0.213
aF0.2076
aF0.2131
aF0.2025
aF0.2189
aF0.2051
aF0.2123
aF0.2116
aF0.2114
aF0.2193
aF0.2138
aF0.2054
aF0.2099
aF0.2012
aF0.2146
aF0.2085
aF0.207
aF0.213
aF0.2096
aF0.2192
aF0.2036
aF0.2088
aF0.2138
aF0.204
aF0.212
aF0.2097
aF0.2099
aF0.2108
aF0.2053
aF0.2186
aF0.2154
aF0.2026
aF0.21
aF0.2051
aF0.2096
aF0.2058
aF0.2081
aF0.2059
aF0.2032
aF0.2091
aF0.213
aF0.2059
aF0.2065
aF0.2072
aF0.2118
aF0.2112
aF0.2098
aF0.2094
aF0.2124
aF0.2088
aF0.2115
aF0.2037
aF0.2074
aF0.2051
aF0.2137
aF0.2032
aF0.2098
aF0.1997
aF0.207
aF0.2082
aF0.2042
aF0.2084
aF0.2089
aF0.2052
aF0.2147
aF0.2045
aF0.2053
aF0.203
aF0.2049
aF0.2164
aF0.2057
aF0.2054
aF0.2103
aF0.2003
aF0.2129
aF0.2033
aF0.2099
aF0.2153
aF0.2005
aF0.2112
aF0.2071
aF0.2054
aF0.2035
aF0.2023
aF0.2146
aF0.2025
aF0.2092
aF0.2083
aF0.2039
aF0.2045
aF0.2153
aF0.2062
aF0.2084
aF0.2028
aF0.209
aF0.2128
aF0.211
aF0.1992
aF0.199
aF0.2129
aF0.2098
aF0.2041
aF0.2119
aF0.2016
aF0.2098
aF0.2061
aF0.2054
aF0.215
aF0.2082
aF0.2118
aF0.2127
aF0.2072
aF0.1991
aF0.2047
aF0.2104
aF0.2042
aF0.2097
aF0.204
aF0.2036
aF0.214
aF0.2121
aF0.2087
aF0.2089
aF0.2048
aF0.2066
aF0.2075
aF0.2054
aF0.205
aF0.2011
aF0.2089
aF0.2037
aF0.2032
aF0.202
aF0.2015
aF0.2086
aF0.2026
aF0.2038
aF0.2046
aF0.2033
aF0.2078
aF0.2048
aF0.2066
aF0.1987
aF0.1992
aF0.2077
aF0.1998
aF0.2086
aF0.2094
aF0.2012
aF0.2061
aF0.2025
aF0.2091
aF0.205
aF0.1993
aF0.2076
aF0.2059
aF0.2002
aF0.2046
aF0.1917
aF0.2063
aF0.2143
aF0.2096
aF0.2026
aF0.2037
aF0.2116
aF0.2069
aF0.2071
aF0.2015
aF0.1996
aF0.2047
aF0.1983
aF0.2053
aF0.2015
aF0.1982
aF0.2119
aF0.2106
aF0.2003
aF0.2062
aF0.2019
aF0.1991
aF0.1977
aF0.1989
aF0.2045
aF0.1978
aF0.2036
aF0.2036
aF0.1946
aF0.1997
aF0.1962
aF0.2076
aF0.2118
aF0.2003
aF0.203
aF0.2
aF0.2091
aF0.2057
aF0.2042
aF0.2048
aF0.1966
aF0.2145
aF0.2049
aF0.2054
aF0.198
aF0.1971
aF0.2062
aF0.2037
aF0.205
aF0.1974
aF0.1982
aF0.2063
aF0.196
aF0.1998
aF0.2003
aF0.1979
aF0.2009
aF0.2131
aF0.202
aF0.1997
aF0.1968
aF0.209
aF0.2039
aF0.2051
aF0.1966
aF0.1996
aF0.2109
aF0.1998
aF0.198
aF0.1964
aF0.201
aF0.2048
aF0.204
aF0.2023
aF0.204
aF0.1973
aF0.2046
aF0.1968
aF0.2017
aF0.2005
aF0.1981
aF0.2056
aF0.2076
aF0.2014
aF0.2021
aF0.1969
aF0.2033
aF0.2072
aF0.1958
aF0.2002
aF0.1934
aF0.2063
aF0.2055
aF0.1938
aF0.205
aF0.1874
aF0.2015
aF0.1953
aF0.1988
aF0.1992
aF0.1995
aF0.2016
aF0.197
aF0.193
aF0.1987
aF0.2025
aF0.2068
aF0.1968
aF0.2034
aF0.1976
aF0.1967
aF0.1996
aF0.199
aF0.2005
aF0.1985
aF0.1949
aF0.2016
aF0.1962
aF0.1995
aF0.1995
aF0.1944
aF0.2079
aF0.1933
aF0.2012
aF0.2009
aF0.1963
aF0.204
aF0.1933
aF0.2001
aF0.202
aF0.2033
aF0.21
aF0.1995
aF0.2025
aF0.2036
aF0.1963
aF0.2073
aF0.2031
aF0.1972
aF0.1967
aF0.2013
aF0.2043
aF0.1962
aF0.1961
aF0.1991
aF0.1907
aF0.2041
aF0.2034
aF0.198
aF0.2043
aF0.1914
aF0.201
aF0.1953
aF0.1949
aF0.1961
aF0.1886
aF0.2033
aF0.2028
aF0.1972
aF0.1987
aF0.2018
aF0.2046
aF0.193
aF0.1902
aF0.2041
aF0.1946
aF0.2052
aF0.194
aF0.2005
aF0.1959
aF0.1885
aF0.1975
aF0.2009
aF0.1946
aF0.2019
aF0.1924
aF0.2032
aF0.1893
aF0.1975
aF0.1978
aF0.1862
aF0.2058
aF0.1999
aF0.197
aF0.1889
aF0.1898
aF0.2006
aF0.192
aF0.1967
aF0.1929
aF0.1918
aF0.2029
aF0.2003
aF0.1978
aF0.1915
aF0.1937
aF0.1993
aF0.2018
aF0.1942
aF0.1958
aF0.1927
aF0.2005
aF0.2019
aF0.1926
aF0.1988
aF0.198
aF0.2034
aF0.1908
aF0.1977
aF0.1978
aF0.1967
aF0.206
aF0.1924
aF0.1949
aF0.199
aF0.186
aF0.201
aF0.1976
aF0.1958
aF0.1926
aF0.1938
aF0.2045
aF0.1946
aF0.2019
aF0.1987
aF0.1933
aF0.2111
aF0.1959
aF0.1958
aF0.203
aF0.1956
aF0.2021
aF0.1964
aF0.1902
aF0.197
aF0.1869
aF0.1978
aF0.1999
aF0.1967
aF0.1995
aF0.1952
aF0.1984
aF0.204
aF0.1896
aF0.2021
aF0.188
aF0.1937
aF0.1954
aF0.1902
aF0.195
aF0.1969
aF0.1889
aF0.1968
aF0.1966
aF0.198
aF0.1974
aF0.2013
aF0.1998
aF0.2078
aF0.1993
aF0.1883
aF0.2055
aF0.1902
aF0.1936
aF0.1973
aF0.1874
aF0.2067
aF0.1964
aF0.1921
aF0.1921
aF0.1896
aF0.1989
aF0.1889
aF0.1986
aF0.1976
aF0.1936
aF0.2111
aF0.1944
aF0.202
aF0.1943
aF0.1935
aF0.201
aF0.1953
aF0.1885
aF0.2032
aF0.1917
aF0.193
aF0.1946
aF0.1964
aF0.1978
aF0.1971
aF0.1932
aF0.1955
aF0.1922
aF0.1917
aF0.1984
aF0.1969
aF0.1931
aF0.194
aF0.197
aF0.1847
aF0.2105
aF0.2001
aF0.1998
aF0.196
aF0.1985
aF0.2025
aF0.191
aF0.1983
aF0.1936
aF0.1952
aF0.1947
aF0.1916
aF0.1928
aF0.1904
aF0.1951
aF0.1986
aF0.1945
aF0.1929
aF0.1992
aF0.1843
aF0.204
aF0.2045
aF0.1938
aF0.191
aF0.191
aF0.1995
aF0.1868
aF0.1933
aF0.1926
aF0.1914
aF0.1973
aF0.1929
aF0.194
aF0.1899
aF0.1931
aF0.1938
aF0.1885
aF0.1895
aF0.1864
aF0.1876
aF0.1987
aF0.1833
aF0.1952
aF0.1912
aF0.1895
aF0.1952
aF0.1919
aF0.1894
aF0.1934
aF0.1913
aF0.1983
aF0.196
aF0.1974
aF0.1899
aF0.1915
aF0.1973
aF0.1901
aF0.1914
aF0.1894
aF0.1909
aF0.1964
aF0.1951
aF0.188
aF0.1919
aF0.187
aF0.1985
aF0.1943
aF0.1869
aF0.1918
aF0.1852
aF0.2001
aF0.1932
aF0.2006
aF0.194
aF0.1858
aF0.1999
aF0.1916
aF0.1966
aF0.1931
aF0.1924
aF0.1941
aF0.1893
aF0.1944
aF0.1982
aF0.1919
aF0.1949
aF0.1945
aF0.1992
aF0.1908
aF0.1835
aF0.1975
aF0.1928
aF0.1909
aF0.1886
aF0.1927
aF0.2021
aF0.1887
aF0.1941
aF0.1949
aF0.1817
aF0.194
aF0.1838
aF0.1943
aF0.1945
aF0.1805
aF0.195
aF0.187
aF0.1866
aF0.2041
aF0.1893
aF0.1969
aF0.1921
aF0.1937
aF0.1863
aF0.1867
aF0.1963
aF0.1935
aF0.1853
aF0.1862
aF0.1848
aF0.1996
aF0.1867
aF0.1906
aF0.1958
aF0.1901
aF0.1995
aF0.1896
aF0.2007
aF0.1983
aF0.1829
aF0.1934
aF0.1909
aF0.1902
aF0.1992
aF0.1889
aF0.1938
aF0.1832
aF0.1843
aF0.1915
aF0.1928
aF0.1963
aF0.1905
aF0.1932
aF0.1983
aF0.1915
aF0.1974
aF0.1887
aF0.1924
aF0.1863
aF0.1852
aF0.1942
aF0.1941
aF0.1916
aF0.188
aF0.1906
aF0.1897
aF0.1905
aF0.189
aF0.1882
aF0.1843
aF0.1935
aF0.1908
aF0.1936
aF0.1886
aF0.1839
aF0.1894
aF0.1928
aF0.1899
aF0.1978
aF0.1855
aF0.1922
aF0.1899
aF0.1858
aF0.1907
aF0.1879
aF0.1936
aF0.1937
aF0.1875
aF0.1884
aF0.1849
aF0.1942
aF0.1905
aF0.19
aF0.1937
aF0.1875
aF0.1985
aF0.1901
aF0.1869
aF0.1874
aF0.188
aF0.1948
aF0.1925
aF0.1984
aF0.197
aF0.1857
aF0.192
aF0.1927
aF0.1885
aF0.19365
aF0.1875
aF0.1936
aF0.1877
aF0.1847
aF0.1908
aF0.1883
aF0.2001
aF0.1895
aF0.1908
aF0.1942
aF0.1869
aF0.1974
aF0.1886
aF0.1927
aF0.1834
aF0.1922
aF0.2042
aF0.1877
aF0.1905
aF0.1959
aF0.186
aF0.1921
aF0.1944
aF0.1884
aF0.1914
aF0.1884
aF0.1955
aF0.1897
aF0.1853
aF0.19
aF0.1807
aF0.189
aF0.1926
aF0.1899
aF0.1965
aF0.1873
aF0.1966
aF0.192
aF0.1928
aF0.1841
aF0.1809
aF0.1947
aF0.1909
aF0.1888
aF0.192
aF0.1811
aF0.1944
aF0.1932
aF0.1864
aF0.1911
aF0.1859
aF0.1865
aF0.1947
aF0.193
aF0.1871
aF0.1849
aF0.1955
aF0.1846
aF0.1919
aF0.1905
aF0.1816
aF0.1982
aF0.1842
aF0.1881
aF0.1943
aF0.1852
aF0.1964
aF0.1928
aF0.1888
aF0.1942
aF0.1891
aF0.1935
aF0.1871
aF0.1862
aF0.189
aF0.1874
aF0.1876
aF0.19
aF0.1877
aF0.1939
aF0.1857
aF0.198
aF0.1901
aF0.1911
aF0.1863
aF0.1879
aF0.1924
aF0.1883
aF0.1907
aF0.1944
aF0.1897
aF0.1924
aF0.1956
aF0.1863
aF0.1899
aF0.1838
aF0.1918
aF0.1898
aF0.1824
aF0.1898
aF0.1916
aF0.1954
aF0.1874
aF0.1868
aF0.1896
aF0.1824
aF0.1904
aF0.1867
aF0.1831
aF0.1893
aF0.1825
aF0.1961
aF0.1871
aF0.1875
aF0.1872
aF0.1859
aF0.1888
aF0.1862
aF0.1938
aF0.1885
aF0.1861
aF0.1953
aF0.1925
aF0.1905
aF0.1914
aF0.1843
aF0.1945
aF0.1835
aF0.1888
aF0.1952
aF0.1871
aF0.1961
aF0.1855
aF0.1867
aF0.1898
aF0.1834
aF0.1855
aF0.1955
aF0.1878
aF0.1929
aF0.1841
aF0.1951
aF0.1841
aF0.1863
aF0.1984
aF0.1838
aF0.1967
aF0.1917
aF0.1877
aF0.1905
aF0.186
aF0.1908
aF0.1973
aF0.1826
aF0.1954
aF0.182
aF0.1959
aF0.1877
aF0.1859
aF0.1888
aF0.187
aF0.1902
aF0.1834
aF0.186
aF0.1849
aF0.1881
aF0.1882
aF0.1864
aF0.1881
aF0.1899
aF0.1876
aF0.1955
aF0.1899
aF0.1839
aF0.1887
aF0.1942
aF0.197
aF0.1912
aF0.1852
aF0.1885
aF0.18
aF0.1928
aF0.1882
aF0.1839
aF0.1915
aF0.1832
aF0.1918
aF0.1898
aF0.1786
aF0.186
aF0.1838
aF0.1908
aF0.1892
aF0.1881
aF0.1826
aF0.1835
aF0.1998
aF0.1862
aF0.1895
aF0.188
aF0.1841
aF0.1896
aF0.1843
aF0.1889
aF0.1878
aF0.1818
aF0.1848
aF0.1896
aF0.1848
aF0.1924
aF0.1853
aF0.1866
aF0.176
aF0.1916
aF0.1895
aF0.1782
aF0.1945
aF0.1824
aF0.1836
aF0.1877
aF0.1786
aF0.19
aF0.188
aF0.1885
aF0.191
aF0.1858
aF0.1823
aF0.1861
aF0.1941
aF0.1881
aF0.1865
aF0.1831
aF0.188
aF0.1876
aF0.1881
aF0.1884
aF0.1932
aF0.1826
aF0.1878
aF0.1901
aF0.188
aF0.1967
aF0.1873
aF0.1818
aF0.1917
aF0.1885
aF0.1874
aF0.1901
aF0.1974
aF0.1828
aF0.1863
aF0.1842
aF0.1929
aF0.1858
aF0.1892
aF0.1829
aF0.1863
aF0.1966
aF0.1919
aF0.1893
aF0.1818
aF0.1933
aF0.1831
aF0.1778
aF0.1942
aF0.1853
aF0.1945
aF0.1938
aF0.1815
aF0.1904
aF0.1908
aF0.1937
aF0.1841
aF0.1826
aF0.1929
aF0.1827
aF0.183
aF0.1814
aF0.1763
aF0.1867
aF0.1774
aF0.1866
aF0.1844
aF0.1829
aF0.1881
aF0.1897
aF0.194
aF0.1925
aF0.1834
aF0.1904
aF0.1802
aF0.1919
aF0.179
aF0.1758
aF0.1853
aF0.1833
aF0.1861
aF0.1883
aF0.1844
aF0.1876
aF0.1823
aF0.1919
aF0.1796
a.