(lp0
F0.8086
aF0.7038
aF0.6552
aF0.6346
aF0.6047
aF0.5842
aF0.5724
aF0.5409
aF0.5283
aF0.5222
aF0.5119
aF0.5046
aF0.4816
aF0.4935
aF0.4739
aF0.4683
aF0.4678
aF0.4583
aF0.458
aF0.4456
aF0.4399
aF0.4459
aF0.4279
aF0.4356
aF0.4277
aF0.4249
aF0.4258
aF0.4167
aF0.4222
aF0.4086
aF0.4148
aF0.4114
aF0.4023
aF0.4071
aF0.3962
aF0.3943
aF0.3987
aF0.3885
aF0.3965
aF0.3849
aF0.3785
aF0.3822
aF0.3741
aF0.386
aF0.3725
aF0.3761
aF0.3664
aF0.357
aF0.3743
aF0.36
aF0.3581
aF0.364
aF0.349
aF0.3622
aF0.3612
aF0.353
aF0.3612
aF0.3463
aF0.3579
aF0.3525
aF0.3467
aF0.355
aF0.3437
aF0.3554
aF0.3443
aF0.3415
aF0.3467
aF0.3374
aF0.3384
aF0.3349
aF0.3329
aF0.3396
aF0.3258
aF0.3386
aF0.3327
aF0.3286
aF0.3339
aF0.3214
aF0.3309
aF0.3264
aF0.3171
aF0.3305
aF0.3079
aF0.3291
aF0.3181
aF0.3191
aF0.3283
aF0.3103
aF0.3212
aF0.3197
aF0.3128
aF0.314
aF0.3039
aF0.319
aF0.3143
aF0.3116
aF0.316
aF0.298
aF0.3153
aF0.3027
aF0.3047
aF0.3072
aF0.3004
aF0.3128
aF0.2999
aF0.3032
aF0.3046
aF0.2969
aF0.3095
aF0.3003
aF0.2975
aF0.3052
aF0.2915
aF0.3098
aF0.2954
aF0.2943
aF0.2988
aF0.2836
aF0.3066
aF0.2964
aF0.2939
aF0.2948
aF0.2831
aF0.3037
aF0.2912
aF0.2916
aF0.2924
aF0.2828
aF0.2999
aF0.2898
aF0.2783
aF0.29
aF0.2789
aF0.2915
aF0.2828
aF0.2785
aF0.2869
aF0.2773
aF0.2877
aF0.2834
aF0.2894
aF0.2799
aF0.2731
aF0.2863
aF0.2782
aF0.2782
aF0.2867
aF0.2764
aF0.293
aF0.2744
aF0.2771
aF0.2768
aF0.2724
aF0.2843
aF0.2756
aF0.2767
aF0.2835
aF0.2668
aF0.2831
aF0.2769
aF0.2671
aF0.2779
aF0.2722
aF0.2852
aF0.2752
aF0.2708
aF0.2778
aF0.2688
aF0.2834
aF0.2713
aF0.2707
aF0.2763
aF0.2595
aF0.2677
aF0.269
aF0.2668
aF0.2698
aF0.2628
aF0.2763
aF0.2724
aF0.2666
aF0.2694
aF0.2581
aF0.275
aF0.2697
aF0.258
aF0.2678
aF0.2641
aF0.2736
aF0.2641
aF0.2577
aF0.2696
aF0.257
aF0.2727
aF0.2679
aF0.2655
aF0.2608
aF0.256
aF0.2648
aF0.2615
aF0.2629
aF0.2625
aF0.2513
aF0.2683
aF0.2614
aF0.2597
aF0.2627
aF0.2494
aF0.2641
aF0.2562
aF0.2596
aF0.2631
aF0.25
aF0.2634
aF0.2584
aF0.2501
aF0.2566
aF0.2517
aF0.2678
aF0.2522
aF0.2525
aF0.2587
aF0.2448
aF0.259
aF0.2608
aF0.247
aF0.2541
aF0.2476
aF0.2646
aF0.258
aF0.2491
aF0.2603
aF0.2452
aF0.2603
aF0.2481
aF0.2537
aF0.2547
aF0.2396
aF0.2571
aF0.2466
aF0.2415
aF0.2547
aF0.2498
aF0.2602
aF0.2521
aF0.2518
aF0.2572
aF0.2472
aF0.259
aF0.2452
aF0.2437
aF0.255
aF0.2459
aF0.2527
aF0.245
aF0.2366
aF0.2507
aF0.2441
aF0.2594
aF0.2483
aF0.2465
aF0.2561
aF0.2446
aF0.2576
aF0.2435
aF0.2392
aF0.2506
aF0.2327
aF0.2494
aF0.2426
aF0.2404
aF0.2503
aF0.2419
aF0.2533
aF0.2471
aF0.2387
aF0.2483
aF0.2416
aF0.2516
aF0.2402
aF0.2406
aF0.2459
aF0.2376
aF0.2487
aF0.2428
aF0.237
aF0.2455
aF0.2391
aF0.2566
aF0.2407
aF0.2377
aF0.2506
aF0.2336
aF0.2469
aF0.2368
aF0.2357
aF0.2464
aF0.2379
aF0.2542
aF0.2366
aF0.2395
aF0.2426
aF0.2367
aF0.2528
aF0.237
aF0.2298
aF0.2442
aF0.2351
aF0.2468
aF0.2411
aF0.2379
aF0.2425
aF0.2308
aF0.2476
aF0.2434
aF0.2389
aF0.2471
aF0.2272
aF0.2481
aF0.2344
aF0.2293
aF0.2414
aF0.2416
aF0.2493
aF0.231
aF0.2356
aF0.244
aF0.231
aF0.2472
aF0.231
aF0.2297
aF0.2412
aF0.2386
aF0.2465
aF0.235
aF0.2274
aF0.2363
aF0.2365
aF0.2479
aF0.23
aF0.2339
aF0.2345
aF0.2317
aF0.2422
aF0.2286
aF0.2294
aF0.2404
aF0.2287
aF0.239
aF0.235
aF0.2319
aF0.2355
aF0.2267
aF0.2412
aF0.2301
aF0.2299
aF0.2388
aF0.2265
aF0.2434
aF0.2332
aF0.2294
aF0.2392
aF0.2322
aF0.2443
aF0.2316
aF0.2331
aF0.2347
aF0.2243
aF0.2382
aF0.2314
aF0.2231
aF0.2369
aF0.2296
aF0.2505
aF0.2279
aF0.2229
aF0.2365
aF0.2269
aF0.2474
aF0.232
aF0.2256
aF0.2365
aF0.2286
aF0.2406
aF0.2243
aF0.225
aF0.2315
aF0.2267
aF0.2364
aF0.2289
aF0.2298
aF0.2367
aF0.2304
aF0.2419
aF0.2288
aF0.2292
aF0.2352
aF0.2238
aF0.2417
aF0.2275
aF0.2205
aF0.2306
aF0.2265
aF0.2391
aF0.2279
aF0.2292
aF0.233
aF0.223
aF0.236
aF0.2271
aF0.2257
aF0.2239
aF0.227
aF0.2376
aF0.227
aF0.2234
aF0.2294
aF0.2216
aF0.2444
aF0.2224
aF0.2238
aF0.2298
aF0.2253
aF0.234
aF0.2257
aF0.226
aF0.2317
aF0.2215
aF0.2371
aF0.2188
aF0.2244
aF0.2301
aF0.2247
aF0.2368
aF0.2258
aF0.2164
aF0.2255
aF0.2276
aF0.2356
aF0.2274
aF0.2254
aF0.2294
aF0.2217
aF0.2334
aF0.2269
aF0.2246
aF0.2354
aF0.2169
aF0.2387
aF0.223
aF0.225
aF0.2227
aF0.2205
aF0.2319
aF0.2253
aF0.2227
aF0.2225
aF0.2259
aF0.2352
aF0.2202
aF0.2208
aF0.2299
aF0.2244
aF0.2357
aF0.2196
aF0.2194
aF0.2251
aF0.225
aF0.2352
aF0.2186
aF0.2202
aF0.2232
aF0.2168
aF0.2316
aF0.219
aF0.217
aF0.2264
aF0.2238
aF0.2324
aF0.2218
aF0.2164
aF0.2286
aF0.2224
aF0.2328
aF0.2203
aF0.217
aF0.226
aF0.2186
aF0.2261
aF0.2201
aF0.2212
aF0.2245
aF0.2171
aF0.2327
aF0.2236
aF0.2192
aF0.2203
aF0.2096
aF0.2309
aF0.2225
aF0.2177
aF0.2219
aF0.2205
aF0.2266
aF0.2167
aF0.2187
aF0.2206
aF0.2198
aF0.2315
aF0.2138
aF0.2199
aF0.2203
aF0.2158
aF0.2326
aF0.2189
aF0.2166
aF0.2208
aF0.217
aF0.2329
aF0.2184
aF0.2218
aF0.2266
aF0.2186
aF0.2221
aF0.2179
aF0.2171
aF0.2199
aF0.2159
aF0.2331
aF0.221
aF0.2135
aF0.2156
aF0.2257
aF0.2283
aF0.2162
aF0.2154
aF0.2239
aF0.2143
aF0.2291
aF0.214
aF0.2171
aF0.2192
aF0.2129
aF0.2329
aF0.2133
aF0.2148
aF0.2224
aF0.2119
aF0.2231
aF0.2188
aF0.219
aF0.2195
aF0.2152
aF0.2239
aF0.215
aF0.2228
aF0.2192
aF0.2166
aF0.2264
aF0.2154
aF0.2132
aF0.2201
aF0.2115
aF0.2257
aF0.2122
aF0.2176
aF0.2168
aF0.2138
aF0.226
aF0.2163
aF0.2149
aF0.2208
aF0.2165
aF0.2302
aF0.2111
aF0.2098
aF0.2198
aF0.2139
aF0.2336
aF0.2148
aF0.2182
aF0.2173
aF0.2172
aF0.2264
aF0.2183
aF0.213
aF0.2167
aF0.2108
aF0.2308
aF0.2134
aF0.2144
aF0.2197
aF0.2176
aF0.2283
aF0.2134
aF0.2109
aF0.2153
aF0.2082
aF0.2311
aF0.2118
aF0.2106
aF0.219
aF0.2106
aF0.2307
aF0.2126
aF0.2136
aF0.2175
aF0.2121
aF0.2269
aF0.2143
aF0.2127
aF0.2211
aF0.2161
aF0.2244
aF0.2146
aF0.2105
aF0.2203
aF0.2168
aF0.2237
aF0.2161
aF0.2123
aF0.2173
aF0.2093
aF0.2265
aF0.2069
aF0.2081
aF0.2179
aF0.2103
aF0.227
aF0.212
aF0.2129
aF0.215
aF0.2116
aF0.2287
aF0.213
aF0.2083
aF0.218
aF0.2136
aF0.2237
aF0.2118
aF0.2099
aF0.2168
aF0.2125
aF0.2272
aF0.2146
aF0.2142
aF0.214
aF0.207
aF0.2233
aF0.2175
aF0.2123
aF0.2128
aF0.2086
aF0.2288
aF0.2156
aF0.2069
aF0.2149
aF0.2141
aF0.2174
aF0.2127
aF0.2125
aF0.2131
aF0.2033
aF0.2225
aF0.2099
aF0.2095
aF0.2157
aF0.2058
aF0.2185
aF0.2147
aF0.2102
aF0.2112
aF0.2079
aF0.2253
aF0.2098
aF0.2084
aF0.2119
aF0.2048
aF0.2208
aF0.2104
aF0.2105
aF0.2144
aF0.21
aF0.2226
aF0.2127
aF0.208
aF0.2109
aF0.2091
aF0.22
aF0.2095
aF0.21
aF0.2089
aF0.2151
aF0.2247
aF0.2074
aF0.2134
aF0.2103
aF0.2066
aF0.2206
aF0.2067
aF0.2114
aF0.2166
aF0.2071
aF0.2251
aF0.2077
aF0.2087
aF0.2116
aF0.2007
aF0.2206
aF0.2056
aF0.2163
aF0.2113
aF0.2101
aF0.2238
aF0.2097
aF0.2072
aF0.2175
aF0.206
aF0.2182
aF0.2031
aF0.2093
aF0.2077
aF0.2101
aF0.2199
aF0.212
aF0.2111
aF0.2135
aF0.2101
aF0.2195
aF0.206
aF0.2084
aF0.2136
aF0.2124
aF0.2214
aF0.2111
aF0.2053
aF0.2133
aF0.2095
aF0.2224
aF0.2064
aF0.2038
aF0.2092
aF0.2122
aF0.2192
aF0.2051
aF0.2022
aF0.2097
aF0.2127
aF0.219
aF0.2082
aF0.2054
aF0.2131
aF0.2099
aF0.2248
aF0.2086
aF0.2081
aF0.2114
aF0.2086
aF0.2198
aF0.2032
aF0.2087
aF0.2122
aF0.2058
aF0.2259
aF0.2056
aF0.2052
aF0.2062
aF0.2029
aF0.2191
aF0.2036
aF0.2078
aF0.2231
aF0.2026
aF0.2233
aF0.2077
aF0.2058
aF0.2062
aF0.2046
aF0.2128
aF0.2069
aF0.2057
aF0.2113
aF0.2106
aF0.2208
aF0.2204
aF0.2072
aF0.2145
aF0.208
aF0.2181
aF0.2026
aF0.2029
aF0.21
aF0.2086
aF0.2199
aF0.206
aF0.2086
aF0.2113
aF0.1971
aF0.2145
aF0.2042
aF0.2056
aF0.2135
aF0.2017
aF0.2233
aF0.2009
aF0.2065
aF0.2094
aF0.2037
aF0.2263
aF0.212
aF0.205
aF0.2104
aF0.208
aF0.2192
aF0.2067
aF0.2014
aF0.2212
aF0.2005
aF0.2192
aF0.2054
aF0.2023
aF0.2111
aF0.2026
aF0.2195
aF0.2106
aF0.204
aF0.2109
aF0.213
aF0.2148
aF0.2051
aF0.2039
aF0.2063
aF0.2064
aF0.214
aF0.2042
aF0.2045
aF0.2095
aF0.2038
aF0.2181
aF0.2037
aF0.2055
aF0.2116
aF0.2082
aF0.2164
aF0.2027
aF0.2012
aF0.2138
aF0.201
aF0.212
aF0.198
aF0.2039
aF0.2049
aF0.2029
aF0.2197
aF0.2085
aF0.2087
aF0.2139
aF0.2106
aF0.225
aF0.2013
aF0.2104
aF0.2066
aF0.2055
aF0.2174
aF0.2045
aF0.2054
aF0.2136
aF0.2057
aF0.2155
aF0.2015
aF0.2056
aF0.2128
aF0.2038
aF0.2182
aF0.2011
aF0.1999
aF0.2109
aF0.2048
aF0.2183
aF0.2084
aF0.1982
aF0.2019
aF0.2075
aF0.2139
aF0.2023
aF0.2015
aF0.2072
aF0.2019
aF0.2219
aF0.2117
aF0.2024
aF0.2043
aF0.2038
aF0.2143
aF0.206
aF0.2024
aF0.2036
aF0.1974
aF0.212
aF0.2075
aF0.2037
aF0.2047
aF0.2023
aF0.2159
aF0.2088
aF0.1992
aF0.2073
aF0.2057
aF0.2154
aF0.2039
aF0.2053
aF0.201
aF0.2068
aF0.2122
aF0.1998
aF0.1993
aF0.2112
aF0.2062
aF0.2147
aF0.2029
aF0.2003
aF0.2011
aF0.1996
aF0.212
aF0.2001
aF0.1979
aF0.204
aF0.2032
aF0.2157
aF0.2057
aF0.1993
aF0.2024
aF0.2055
aF0.2155
aF0.2049
aF0.2046
aF0.2064
aF0.1963
aF0.2164
aF0.2007
aF0.2028
aF0.2049
aF0.1971
aF0.2094
aF0.1999
aF0.2051
aF0.21
aF0.2024
aF0.2156
aF0.2038
aF0.205
aF0.2109
aF0.2038
aF0.2106
aF0.2061
aF0.2023
aF0.1998
aF0.2081
aF0.2171
aF0.2031
aF0.1995
aF0.208
aF0.197
aF0.2126
aF0.2035
aF0.2023
aF0.2008
aF0.2047
aF0.2164
aF0.2049
aF0.1985
aF0.2077
aF0.2008
aF0.2158
aF0.2054
aF0.2033
aF0.2063
aF0.206
aF0.2239
aF0.2002
aF0.1974
aF0.2049
aF0.2023
aF0.2143
aF0.2007
aF0.1966
aF0.2068
aF0.2058
aF0.2136
aF0.2111
aF0.2022
aF0.2067
aF0.2018
aF0.2118
aF0.205
aF0.2008
aF0.2079
aF0.2043
aF0.2107
aF0.1992
aF0.1992
aF0.2004
aF0.1981
aF0.2135
aF0.2019
aF0.1943
aF0.2077
aF0.2024
aF0.209
aF0.2004
aF0.2027
aF0.2038
aF0.2038
aF0.2128
aF0.2056
aF0.1958
aF0.2104
aF0.2013
aF0.2079
aF0.2022
aF0.2
aF0.2029
aF0.2008
aF0.2154
aF0.2033
aF0.19665
aF0.2007
aF0.1944
aF0.2148
aF0.2051
aF0.1956
aF0.2045
aF0.2051
aF0.2061
aF0.2068
aF0.2055
aF0.2012
aF0.199
aF0.214
aF0.2022
aF0.2051
aF0.2051
aF0.2059
aF0.2125
aF0.2004
aF0.1944
aF0.2031
aF0.2003
aF0.2143
aF0.1974
aF0.194
aF0.1999
aF0.1973
aF0.2083
aF0.201
aF0.1996
aF0.2091
aF0.2008
aF0.2115
aF0.2062
aF0.193
aF0.2011
aF0.1993
aF0.2088
aF0.2004
aF0.2017
aF0.1939
aF0.1999
aF0.2121
aF0.2005
aF0.2041
aF0.2024
aF0.2006
aF0.2167
aF0.1987
aF0.2
aF0.2069
aF0.1971
aF0.2086
aF0.1986
aF0.2075
aF0.201
aF0.2029
aF0.2105
aF0.2002
aF0.1962
aF0.199
aF0.2028
aF0.2115
aF0.2007
aF0.1965
aF0.2027
aF0.1959
aF0.2111
aF0.2066
aF0.205
aF0.2031
aF0.1999
aF0.2077
aF0.2024
aF0.1958
aF0.2045
aF0.1985
aF0.2128
aF0.2016
aF0.2013
aF0.1984
aF0.201
aF0.2155
aF0.1993
aF0.2036
aF0.2081
aF0.1949
aF0.2096
aF0.1953
aF0.2059
aF0.2099
aF0.1983
aF0.2093
aF0.1944
aF0.1995
aF0.2043
aF0.1938
aF0.2119
aF0.1949
aF0.1954
aF0.2079
aF0.1952
aF0.2078
aF0.1975
aF0.1989
aF0.2058
aF0.204
aF0.2122
aF0.1974
aF0.2025
aF0.2027
aF0.2043
aF0.2073
aF0.2022
aF0.197
aF0.2016
aF0.1978
aF0.2097
aF0.2004
aF0.1977
aF0.2047
aF0.2002
aF0.215
aF0.2037
aF0.1959
aF0.1999
aF0.2026
aF0.2107
aF0.2004
aF0.1971
aF0.2026
aF0.2014
aF0.2144
aF0.1995
aF0.1945
aF0.202
aF0.1995
aF0.2095
aF0.2027
aF0.1971
aF0.1977
aF0.1943
aF0.2079
aF0.1973
aF0.1982
aF0.2052
aF0.2002
aF0.2153
aF0.1956
aF0.1957
aF0.2013
aF0.2073
aF0.2089
aF0.1995
aF0.1946
aF0.2017
aF0.197
aF0.2099
aF0.2003
aF0.1968
aF0.2025
aF0.2015
aF0.2094
aF0.2003
aF0.2015
aF0.2003
aF0.2028
aF0.2091
aF0.1998
aF0.195
aF0.2033
aF0.1993
aF0.2167
aF0.2007
aF0.1957
aF0.1956
aF0.1983
aF0.2118
aF0.1957
aF0.1989
aF0.2045
aF0.1962
aF0.2165
aF0.1924
aF0.1923
aF0.2042
aF0.1947
aF0.2064
aF0.198
aF0.1956
aF0.1996
aF0.1973
aF0.2045
aF0.2024
aF0.1984
aF0.2034
aF0.1988
aF0.2106
aF0.2014
aF0.1959
aF0.2011
aF0.1934
aF0.2069
aF0.197
aF0.197
aF0.2064
aF0.1932
aF0.2082
aF0.2007
aF0.1991
aF0.2001
aF0.1959
aF0.2048
aF0.1957
aF0.1941
aF0.2039
aF0.1937
aF0.2049
aF0.1937
aF0.2004
aF0.2017
aF0.1986
aF0.2088
aF0.1941
aF0.1941
aF0.2016
aF0.198
aF0.2105
aF0.194
aF0.1974
aF0.2004
aF0.1933
aF0.2042
aF0.1905
aF0.202
aF0.1983
aF0.2004
aF0.2137
aF0.1999
aF0.2023
aF0.194
aF0.1993
aF0.2045
aF0.1942
aF0.1939
aF0.2015
aF0.1905
aF0.2129
aF0.1958
aF0.1932
aF0.2013
aF0.2003
aF0.2142
aF0.1964
aF0.1945
aF0.199
aF0.1893
aF0.2112
aF0.1945
aF0.2066
aF0.2032
aF0.1962
aF0.207
aF0.198
aF0.1988
aF0.1996
aF0.1948
aF0.2137
aF0.2016
aF0.1928
aF0.2002
aF0.1984
aF0.2025
aF0.2011
aF0.1963
aF0.1996
aF0.1918
aF0.2032
aF0.2003
aF0.1988
aF0.2002
aF0.1985
aF0.2087
aF0.199
aF0.1945
aF0.2071
aF0.1954
aF0.2105
aF0.1945
aF0.1979
aF0.2021
aF0.195
aF0.2056
aF0.1939
aF0.1972
aF0.1921
aF0.1958
aF0.2103
aF0.1932
aF0.1925
aF0.2018
aF0.1911
aF0.2114
aF0.2
aF0.1944
aF0.2015
aF0.1977
aF0.2048
aF0.1944
aF0.1959
aF0.195
aF0.191
aF0.2058
aF0.1945
aF0.1972
aF0.1966
aF0.191
aF0.2076
aF0.2035
aF0.194
aF0.2028
aF0.1943
aF0.2047
aF0.1978
aF0.1943
aF0.1973
aF0.1921
aF0.207
aF0.2005
aF0.1969
aF0.1923
aF0.195
aF0.2063
aF0.1982
aF0.1982
aF0.2015
aF0.1994
aF0.2037
aF0.2009
aF0.1972
aF0.2014
aF0.1971
aF0.202
aF0.1969
aF0.1959
aF0.1999
aF0.1924
aF0.1991
aF0.1927
aF0.1961
aF0.1981
aF0.1993
aF0.2033
aF0.1986
aF0.1991
aF0.1932
aF0.1954
aF0.1973
aF0.1982
aF0.1911
aF0.1945
aF0.1993
aF0.2064
aF0.1961
aF0.1936
aF0.1981
aF0.1934
aF0.2053
aF0.1964
aF0.1969
aF0.1917
aF0.195
aF0.2123
aF0.1923
aF0.1962
aF0.1976
aF0.1942
aF0.2014
aF0.1961
aF0.1938
aF0.1981
aF0.1953
aF0.2013
aF0.1985
aF0.1886
aF0.1974
aF0.193
aF0.2049
aF0.1999
aF0.1908
aF0.2001
aF0.1944
aF0.2023
aF0.1964
aF0.1908
aF0.2056
aF0.1925
aF0.2017
aF0.1924
aF0.1924
aF0.1947
aF0.1966
aF0.2027
aF0.1961
aF0.1942
aF0.2003
aF0.196
aF0.2102
aF0.1962
aF0.1992
aF0.1912
aF0.1915
aF0.2051
aF0.1946
aF0.1967
aF0.1975
aF0.195
aF0.2082
aF0.1932
aF0.1937
aF0.1994
aF0.1929
aF0.2068
aF0.1916
aF0.1954
aF0.2003
aF0.1923
aF0.2124
aF0.1954
aF0.1921
aF0.2012
aF0.1939
aF0.2055
aF0.191
aF0.1919
aF0.1963
aF0.1932
aF0.2068
aF0.1941
aF0.1933
aF0.1974
aF0.1925
aF0.1989
aF0.192
aF0.193
aF0.1976
aF0.1885
aF0.2035
aF0.2003
aF0.1901
aF0.2007
aF0.1953
aF0.2036
aF0.1969
aF0.1905
aF0.2014
aF0.1955
aF0.2046
aF0.1924
aF0.1942
aF0.2088
aF0.1945
aF0.2085
aF0.1967
aF0.1932
aF0.1903
aF0.1886
aF0.2089
aF0.194
aF0.1926
aF0.1992
aF0.1979
aF0.2038
aF0.1958
aF0.1863
aF0.1959
aF0.1936
aF0.2105
aF0.1906
aF0.1893
aF0.2009
aF0.1963
aF0.2063
aF0.1916
aF0.1942
aF0.1968
aF0.1981
aF0.2085
aF0.1997
aF0.1959
aF0.1934
aF0.1884
aF0.2056
aF0.1914
aF0.1932
aF0.1935
aF0.1987
aF0.2065
aF0.1958
aF0.1892
aF0.1961
aF0.1975
aF0.2011
aF0.1933
aF0.1887
aF0.1996
aF0.1958
aF0.2022
aF0.1967
aF0.1906
aF0.2017
aF0.1911
aF0.2011
aF0.1953
aF0.1942
aF0.2
aF0.1937
aF0.2077
aF0.1926
aF0.1938
aF0.1992
aF0.1935
aF0.2048
aF0.1974
a.