(lp0
F2.1528353088378904
aF1.906905817604065
aF1.7675360166549683
aF1.7289876121520995
aF1.655071940612793
aF1.6085981117248536
aF1.574859312438965
aF1.5064405704498292
aF1.4770376974105834
aF1.466418492126465
aF1.4255818326950074
aF1.422707741355896
aF1.3617604022979737
aF1.3918565054893495
aF1.3524817125320434
aF1.3349408414840698
aF1.3185436229705811
aF1.285498761177063
aF1.296502803707123
aF1.2822481510162353
aF1.249237767791748
aF1.263530806159973
aF1.2198479068756103
aF1.238075375366211
aF1.2238596508026123
aF1.2105516708374024
aF1.189407939338684
aF1.1736659673690797
aF1.203922197151184
aF1.1820519981384277
aF1.170722685623169
aF1.1706578409194945
aF1.1362628705978393
aF1.16028201379776
aF1.1232180835723877
aF1.121416199684143
aF1.1289070307731628
aF1.0962734945297241
aF1.1230684197425842
aF1.0880494546890258
aF1.0747228147506713
aF1.0947729915618896
aF1.0683141808509826
aF1.0904747798919678
aF1.0693745763778686
aF1.0610680747032166
aF1.05206164894104
aF1.0363847449302674
aF1.0680449068069457
aF1.0346268060684205
aF1.0274527393341064
aF1.036201971244812
aF1.012308613395691
aF1.0394486312866211
aF1.0344378988265992
aF1.0071327486038208
aF1.0281035966873169
aF0.9951881399154663
aF1.0261683444976806
aF1.001539065170288
aF0.9777758584976196
aF1.010616079902649
aF0.9893774647712708
aF0.9973714594841003
aF0.9854555465698243
aF0.9738163217544555
aF0.9820233486175537
aF0.9650484300613403
aF0.9761326125144959
aF0.9608462505340576
aF0.9687694551467896
aF0.9635191456794738
aF0.9399380846977234
aF0.9639924308776856
aF0.9541019533157349
aF0.9395003913879395
aF0.9507911044597626
aF0.9199658566474914
aF0.9578243627548217
aF0.9371586120605468
aF0.9103249897003174
aF0.9512232906341552
aF0.9115010482788086
aF0.9462213359832764
aF0.9051166610717774
aF0.9200627124786377
aF0.9351535409927368
aF0.8936931586265564
aF0.940154349899292
aF0.9221050369262696
aF0.8977120267868042
aF0.914786277961731
aF0.8962202123641968
aF0.9220958204269409
aF0.896433186340332
aF0.8920773133277893
aF0.910640915107727
aF0.8748959348678589
aF0.922315217256546
aF0.8677243831634521
aF0.8673799760818481
aF0.8905023434638977
aF0.8673766004562378
aF0.8886370780944824
aF0.8735441528320312
aF0.8653018098831177
aF0.8823994855880737
aF0.8660636389732361
aF0.8837453386306763
aF0.8665104030609131
aF0.8651560285568237
aF0.8805849972724915
aF0.8491803573608399
aF0.8936955780982971
aF0.8555401480674744
aF0.8523470312118531
aF0.8598043204307556
aF0.8375662630081177
aF0.8756517641067505
aF0.8562254938125611
aF0.8387531770706177
aF0.8549502493858337
aF0.8353732320785523
aF0.8714683480262756
aF0.8415144773483276
aF0.8311890975952149
aF0.854311856842041
aF0.8188593904495239
aF0.863811337852478
aF0.8245338876724243
aF0.8196011984825134
aF0.8528723760604858
aF0.8072157722473144
aF0.8375646880149842
aF0.8243814869880677
aF0.809480016708374
aF0.8262428607940674
aF0.8027647757530212
aF0.839707269191742
aF0.8224672414779663
aF0.8208487582206726
aF0.815354197216034
aF0.8024988590240478
aF0.83599269323349
aF0.8130589242935181
aF0.8032358210563659
aF0.8341164043426513
aF0.7989873520374298
aF0.8390151896953583
aF0.7971469802856446
aF0.8038322182655334
aF0.8125500741958618
aF0.7936207291126252
aF0.8248416807174682
aF0.7922954189300537
aF0.7933209217071533
aF0.8120398198604584
aF0.7830839537620544
aF0.8287179950714111
aF0.8103886392593384
aF0.7854726824760437
aF0.8022670706272125
aF0.7796657699108124
aF0.8232017367362976
aF0.791679172706604
aF0.7840660722732544
aF0.7975767295837403
aF0.7819992020130158
aF0.8067448708534241
aF0.7918128290176392
aF0.7794426609039307
aF0.8028847509384155
aF0.769440562582016
aF0.7857032555103302
aF0.7760181671142579
aF0.7653811501502991
aF0.7796558279037475
aF0.7733209214687348
aF0.7922186507225036
aF0.7870152588844299
aF0.757845878982544
aF0.7813271461486816
aF0.7614616004943847
aF0.793315024805069
aF0.7690710556030274
aF0.7651116970062256
aF0.7869012991905212
aF0.7612436959266663
aF0.7849158148765564
aF0.7584434189796447
aF0.7578044004440307
aF0.7834404567718506
aF0.7468516654968261
aF0.7877644250869751
aF0.7682652452468872
aF0.7502194989204407
aF0.7524612809181214
aF0.7528952606678009
aF0.7697564309120178
aF0.7412174454689026
aF0.7575425060272217
aF0.7620017975330353
aF0.7368954561710358
aF0.7746746712684631
aF0.7684490962982178
aF0.7593430137634277
aF0.7599991899490356
aF0.7367844035625458
aF0.7707891321182251
aF0.7384889596939087
aF0.7384856797218323
aF0.7642726955413819
aF0.7377433321475982
aF0.7712597519874572
aF0.7547897119522095
aF0.7236894155502319
aF0.7376466554641724
aF0.7301862777709961
aF0.7690977059841156
aF0.7344780740737915
aF0.7372346894264221
aF0.7554936816215515
aF0.7303133781433105
aF0.7626279138565063
aF0.7494424518585205
aF0.7197259357452392
aF0.7490213998794556
aF0.7382831424713134
aF0.775565393781662
aF0.7498908226013183
aF0.7261133771896362
aF0.7398935546875
aF0.7151867820501328
aF0.7560486126422882
aF0.7346060346603394
aF0.724338067817688
aF0.7403461494922637
aF0.7112420501470565
aF0.7490537981033325
aF0.7362000602722168
aF0.6980860818386078
aF0.7404129667282104
aF0.7237822594165803
aF0.7438459388256073
aF0.7243573519706726
aF0.7185820637702942
aF0.7513705164432526
aF0.7254290875434876
aF0.7505483565807343
aF0.7177719617843628
aF0.7155408838272095
aF0.7297968601703644
aF0.7126464949131012
aF0.7386829306125641
aF0.711816970539093
aF0.6950118522644043
aF0.7316050323486328
aF0.7063772366046905
aF0.74650981965065
aF0.7118270656585693
aF0.7066607570648193
aF0.732244583940506
aF0.7181831617355346
aF0.7360025401353836
aF0.7036524774551391
aF0.6950356760025025
aF0.7222570717811585
aF0.6962041260480881
aF0.7326347356796264
aF0.7093733135223389
aF0.6990375616073609
aF0.7321959579467774
aF0.6997540822029114
aF0.7401768484592438
aF0.7102204195976257
aF0.6967693761825562
aF0.72893455119133
aF0.6978876836776733
aF0.7329219142913819
aF0.7091904976844787
aF0.6961169025421142
aF0.7145746829509735
aF0.6981680538654328
aF0.7176931994915009
aF0.7114300541877746
aF0.6786792016983032
aF0.711841954088211
aF0.701329100227356
aF0.7478280862092972
aF0.7011497594833374
aF0.6901302226066589
aF0.7263919735431671
aF0.6925409761428833
aF0.7217664534568786
aF0.683578007888794
aF0.6894013530731201
aF0.7205999811172485
aF0.6931886875629425
aF0.7312778559207916
aF0.6844355997085572
aF0.6894397710800171
aF0.7092220671176911
aF0.6965904947519302
aF0.7272604008436203
aF0.6955807133674622
aF0.6696324366569519
aF0.7047204733371735
aF0.6812335212230682
aF0.7222204313278199
aF0.6997467422485352
aF0.676183808708191
aF0.7191063982963563
aF0.6695179048538208
aF0.7212948368072509
aF0.6820278619766236
aF0.6917430028915406
aF0.706223372077942
aF0.6764385195732117
aF0.7198196754932403
aF0.6816550316810608
aF0.674026019859314
aF0.7040796710014343
aF0.6960282484054565
aF0.7196461883068085
aF0.6801885865211487
aF0.6874113566398621
aF0.7087312255859375
aF0.6811583053588868
aF0.7119166207313538
aF0.6811172581672669
aF0.6813494414329528
aF0.6936403483867645
aF0.6781747778892517
aF0.7208514164924622
aF0.6859280778884888
aF0.6759745306015015
aF0.6919283605575561
aF0.6729971540927887
aF0.710987454366684
aF0.6657561982154846
aF0.6719239542007446
aF0.6933224862575531
aF0.6818265154600144
aF0.7160355392456055
aF0.676314049243927
aF0.6741774710655213
aF0.7045418889045715
aF0.6661764989852905
aF0.6959936787843705
aF0.6722347476959228
aF0.6751163884162903
aF0.6909546523094178
aF0.6683781951904297
aF0.7098020247459411
aF0.6612306362152099
aF0.662701507472992
aF0.6970817990779876
aF0.6740614203929901
aF0.7125243301391602
aF0.6737937507629395
aF0.6693763250350953
aF0.6869888989925385
aF0.6676842296123504
aF0.7037915217399597
aF0.6744759300231934
aF0.6705535967826843
aF0.6858017456531524
aF0.6617044236183166
aF0.6942731626033783
aF0.678805850982666
aF0.6542073734283447
aF0.6906257448673249
aF0.6788444764137268
aF0.7107156224250794
aF0.6646005110740661
aF0.6648572868347168
aF0.6868254930019378
aF0.6575832941532135
aF0.7024811029434204
aF0.6727847414970398
aF0.6480130430221558
aF0.6826532862186432
aF0.6652507003307343
aF0.7007281814098358
aF0.6540170330047608
aF0.6627624657630921
aF0.6874145808696747
aF0.661692707490921
aF0.6887708910942077
aF0.6672590830802917
aF0.6670319947242737
aF0.6825499922275543
aF0.6760378091812134
aF0.683908358001709
aF0.658375862455368
aF0.6648710990905762
aF0.6729016262531281
aF0.6592667506456376
aF0.6995440140724182
aF0.6660141936302185
aF0.6515421984672546
aF0.6845448556900025
aF0.6594709383964539
aF0.6901100434780121
aF0.6635324795722961
aF0.6660167326450348
aF0.6764000296115875
aF0.6539504737854004
aF0.6865218323946
aF0.6575157222747803
aF0.6418272514820099
aF0.656611706829071
aF0.657494302558899
aF0.6906548027515411
aF0.6653265093803405
aF0.6496969833374023
aF0.6717830847978592
aF0.6478549914360047
aF0.693649993944168
aF0.6550876705169678
aF0.6548758315086365
aF0.669024055480957
aF0.6573341751098633
aF0.6776743659019471
aF0.6487561602592469
aF0.6423114660263062
aF0.674369265460968
aF0.6483870420455933
aF0.6780855102539063
aF0.6458276288986206
aF0.6474652855873108
aF0.6660610368728638
aF0.6533592257022858
aF0.6983426843166352
aF0.6632973802566529
aF0.6474709323883057
aF0.6676966000080109
aF0.6580112441778183
aF0.677127268743515
aF0.6575169811248779
aF0.6549420032501221
aF0.666931588602066
aF0.6443878180027008
aF0.6753077884435653
aF0.6640727669715881
aF0.6509311684131622
aF0.6785047626972198
aF0.6407281633853912
aF0.671610744214058
aF0.6597016324043274
aF0.6386472996711731
aF0.6469562425136566
aF0.6424935190439224
aF0.6836709252595902
aF0.6551120927810669
aF0.6415895212173461
aF0.6576407852649688
aF0.6438370415687561
aF0.6766950617790222
aF0.6406832957267761
aF0.6372259239196777
aF0.6670028560638428
aF0.6472331915378571
aF0.6768475211620331
aF0.6493470039367676
aF0.6349982773780822
aF0.6584596363067627
aF0.6531977244377136
aF0.6777698487043381
aF0.6357250182151795
aF0.6334483192443847
aF0.667880227136612
aF0.6376994815349579
aF0.6729403281688691
aF0.6407932485580444
aF0.6345615437507629
aF0.6648204281806945
aF0.6458468690395355
aF0.6739257703781127
aF0.6474444787979126
aF0.6336216491699219
aF0.6621617029666901
aF0.6483458273649215
aF0.6769374078512191
aF0.634006859588623
aF0.6301675839424133
aF0.6609322124481202
aF0.6394355088710785
aF0.6581141946792602
aF0.6365384854316711
aF0.6461975119590759
aF0.6677450313568115
aF0.6369053075790405
aF0.6755994494438171
aF0.6427705575466156
aF0.6297571074485779
aF0.6529060366153717
aF0.623101543879509
aF0.6679750389814377
aF0.6445507322311401
aF0.6317353991031647
aF0.6557342275619507
aF0.648306532549858
aF0.6695672040939331
aF0.6391725353240967
aF0.6282580816268921
aF0.6444678535938263
aF0.6332484963417053
aF0.6626593781471253
aF0.6296917909622193
aF0.6362924858093262
aF0.6504288035869599
aF0.6344001319169998
aF0.6636244916915893
aF0.6472597896575928
aF0.622523760509491
aF0.650894818496704
aF0.6274558400154113
aF0.6817634634017944
aF0.6299522193908691
aF0.6368553455352783
aF0.6525810922145844
aF0.6362674540519714
aF0.6552683197498321
aF0.6287014044761657
aF0.6173474579811096
aF0.6580819682121277
aF0.6266829853057861
aF0.6657137085914612
aF0.6387117324829101
aF0.619767270565033
aF0.6466357561588287
aF0.6543358025312423
aF0.6668898112297058
aF0.6289935364723206
aF0.6289138226509094
aF0.6548186676740646
aF0.6228716098546981
aF0.6576275674819946
aF0.6241161563396453
aF0.6260206053733826
aF0.6477354021549225
aF0.6340991898298264
aF0.6605198364257813
aF0.6180693548202515
aF0.6182634984970092
aF0.6484972495317459
aF0.6182288736343384
aF0.6528935406684876
aF0.6261996371269226
aF0.6305684295654297
aF0.6450392798900604
aF0.6300619168758392
aF0.6460634130716324
aF0.630629539680481
aF0.6415085680961609
aF0.644475430226326
aF0.6284047180652619
aF0.644698350071907
aF0.6320222875595093
aF0.6224021301746369
aF0.6374690959215165
aF0.6257375183582305
aF0.649914095211029
aF0.6197920495033264
aF0.6216450477600097
aF0.636023965883255
aF0.6318424815654755
aF0.6669119541406632
aF0.6224018783569336
aF0.6206052261352539
aF0.6458818005084992
aF0.6228263349056243
aF0.6554039887905121
aF0.632473696231842
aF0.6099487736701965
aF0.6470301617622376
aF0.6251741309165955
aF0.6650328482866287
aF0.6272874732017517
aF0.6225569270610809
aF0.653276609992981
aF0.6241966234683991
aF0.6631257146596908
aF0.6259867943763733
aF0.617991653585434
aF0.6365726970672607
aF0.620320258808136
aF0.6743863321304321
aF0.6220302038192749
aF0.617928330039978
aF0.6498062111854553
aF0.632205540394783
aF0.6536054975509643
aF0.6221081209182739
aF0.6242875593185425
aF0.6306566631793976
aF0.6126771809577942
aF0.6552865655422211
aF0.6163865811347962
aF0.617511730146408
aF0.6501661192893982
aF0.6093185136556626
aF0.6563852797985077
aF0.6227795623779296
aF0.6178888578414917
aF0.6520852135181427
aF0.6111869257926941
aF0.6578844595909119
aF0.629513866519928
aF0.6152900053024292
aF0.647056417274475
aF0.6269507402181625
aF0.648812727022171
aF0.6122655901908874
aF0.6128782558441163
aF0.6437590508460999
aF0.6222372614622116
aF0.6544457546949387
aF0.6184626101493835
aF0.6178586633682251
aF0.63897116522789
aF0.6198078805446625
aF0.6498265259742737
aF0.6157934982299804
aF0.6042215433120728
aF0.6412997682094574
aF0.6173875632286072
aF0.6557753473758697
aF0.611392389678955
aF0.6175766942024231
aF0.6354362186908722
aF0.6088254195690155
aF0.6540722430706024
aF0.6225622664451599
aF0.6179926993370056
aF0.6300484784603119
aF0.6139547952175141
aF0.6570768396377563
aF0.6178550357818604
aF0.613328103685379
aF0.6340374661445618
aF0.6224570104598999
aF0.6466518292427063
aF0.6177243015289307
aF0.6074658222675323
aF0.6300152818202972
aF0.6119409655928612
aF0.6564111629962921
aF0.620475554227829
aF0.6120111711502075
aF0.6262647455692292
aF0.6120099721431732
aF0.6572833062887192
aF0.6224957879066467
aF0.6035774196624756
aF0.6412134235858917
aF0.6303335882663726
aF0.647100614118576
aF0.6214989820480347
aF0.6103651634216308
aF0.643349836730957
aF0.6004720142602921
aF0.639336154961586
aF0.6140653517723084
aF0.6030383656024932
aF0.6402778091430664
aF0.6034039949178696
aF0.6387721706390381
aF0.619328603553772
aF0.6093477022171021
aF0.626073952794075
aF0.6122505690097809
aF0.6368803808689117
aF0.6141407173156739
aF0.6071789765834809
aF0.6263969603538513
aF0.6010072145581246
aF0.6417069060087204
aF0.6097003064155578
aF0.5952285303115845
aF0.6348459572315216
aF0.6111381042957306
aF0.6548448157787323
aF0.6136778770446777
aF0.5990753604888917
aF0.6317888153076172
aF0.601601996088028
aF0.6265363977909089
aF0.6035540620803833
aF0.6091555022239685
aF0.6392460145950317
aF0.6142316382169724
aF0.6530061527252198
aF0.6068058000564576
aF0.6044743657112122
aF0.61712047290802
aF0.601663040804863
aF0.6429831464290618
aF0.6081024200916291
aF0.6038680601835251
aF0.6369326451301575
aF0.5989549511194229
aF0.6518841341018676
aF0.6046455890655518
aF0.6082500576972961
aF0.6181648762464523
aF0.6018656178951264
aF0.6262467201471329
aF0.6139913650512695
aF0.60750197057724
aF0.6271740719318389
aF0.6107993228435517
aF0.657526814365387
aF0.6187304505348206
aF0.6046072965145111
aF0.6393220861911774
aF0.6134668427944183
aF0.6509655299186706
aF0.6076884078025818
aF0.6011302575588227
aF0.625969036579132
aF0.6099479079246521
aF0.6388483384609223
aF0.6097497958183289
aF0.6111320091247558
aF0.6351804662704468
aF0.6111877267837524
aF0.6363805943012237
aF0.6167655899047851
aF0.607644052028656
aF0.6292467557907104
aF0.6045452238559723
aF0.6475067603111268
aF0.6191620259284973
aF0.598698044204712
aF0.6302571774959564
aF0.5973755420923234
aF0.6416112707614898
aF0.6068064774513244
aF0.5896641653060913
aF0.6272608875274658
aF0.6083375374436378
aF0.6369549523830413
aF0.5930258772373199
aF0.5859752232074737
aF0.6044017050743103
aF0.6083491783618927
aF0.6356468909263611
aF0.6058294696331025
aF0.594927192401886
aF0.6260057793617249
aF0.609853332233429
aF0.6393461291074752
aF0.5977696521759033
aF0.6022048794269562
aF0.6308925146341324
aF0.6026992767453193
aF0.6302315017223358
aF0.6046537150382996
aF0.5978730443954468
aF0.6308917714118958
aF0.6009346143364906
aF0.6503624899625778
aF0.6014479512214661
aF0.6007404275894165
aF0.6173899683475494
aF0.6033567440509796
aF0.6411226757526398
aF0.6037917378425598
aF0.5950821938037872
aF0.6337788116931915
aF0.5999211061954498
aF0.6429652836322785
aF0.604733685684204
aF0.5950501705169677
aF0.622805685043335
aF0.5964816001653671
aF0.6343271162986756
aF0.6049136960029602
aF0.5898241746902466
aF0.6259769662618637
aF0.6091992052555084
aF0.6265825950145721
aF0.614531879234314
aF0.6002794932365417
aF0.6247706871509552
aF0.6051425053715705
aF0.6362272615432739
aF0.5953128152370453
aF0.5929136529445648
aF0.6123344676017761
aF0.6064726734399796
aF0.6334420153141022
aF0.6030900269031525
aF0.5970998627662659
aF0.6161949725627899
aF0.594923445892334
aF0.6287202667713165
aF0.5970035059928894
aF0.5966748962402344
aF0.6252550787210465
aF0.5985160596609116
aF0.6367277632236481
aF0.5989136701583863
aF0.5962097318649292
aF0.6237650960683823
aF0.5920528272151947
aF0.6405445907115936
aF0.6127114818572998
aF0.5863154434204102
aF0.6129188302516937
aF0.6074736671924591
aF0.6336820076465607
aF0.6060267297744751
aF0.58476618475914
aF0.6346598474025726
aF0.5965013335943222
aF0.6259693067550659
aF0.6048001594543457
aF0.5928395251750946
aF0.6238229921340942
aF0.5974976695179939
aF0.6252697781562805
aF0.6086109495162964
aF0.5979173354148865
aF0.6087021056652069
aF0.6161449223041534
aF0.6264464659690857
aF0.6076818782806397
aF0.5894764591217041
aF0.6132210215091706
aF0.6036728474378585
aF0.6329267835617065
aF0.6074709896087647
aF0.5963166040420532
aF0.616275132393837
aF0.602699277639389
aF0.6244373062133789
aF0.6004934778213501
aF0.5914967007637024
aF0.6194922829151154
aF0.5913329007387161
aF0.6242807364940643
aF0.5949886044502258
aF0.5972430788040161
aF0.6090759558916092
aF0.5911508017778396
aF0.631050123333931
aF0.5886731258392334
aF0.5955766167640686
aF0.6058311710834503
aF0.5911517011642456
aF0.6412098785877228
aF0.5990153012752533
aF0.5935563052177429
aF0.6135535206317901
aF0.6018061533927918
aF0.6326831998348236
aF0.592269161939621
aF0.5836947782993317
aF0.619719426369667
aF0.6014735572099685
aF0.6308336767673492
aF0.6031482705593109
aF0.5938206010341645
aF0.6196861921787262
aF0.6015095236301422
aF0.6280441666126251
aF0.5864413547515869
aF0.5942928072452545
aF0.6180364136695862
aF0.5896435920953751
aF0.635787636423111
aF0.5918181848526001
aF0.5802505995750428
aF0.6176433794498444
aF0.5819161776065827
aF0.6260431953430176
aF0.5961866459846497
aF0.5819104121685028
aF0.5978927657842636
aF0.5943502983093262
aF0.6233163293838501
aF0.5975247770786285
aF0.5806696345806122
aF0.6136918154239654
aF0.5966728362083435
aF0.6297287630081176
aF0.6085706059455872
aF0.5850460610389709
aF0.6081679305076599
aF0.5951168274521828
aF0.6221712069034576
aF0.5935281161308289
aF0.5910472755908966
aF0.6091928992271424
aF0.5895490068912506
aF0.6139826102495194
aF0.5947009773731232
aF0.5878282167911529
aF0.611227241396904
aF0.5770881332874298
aF0.6202228961229325
aF0.5871894009113312
aF0.5819683113098144
aF0.6021487945079803
aF0.5993495640277863
aF0.6304487579822541
aF0.593481622505188
aF0.584067840385437
aF0.6156341816425324
aF0.598207935488224
aF0.6123068925142289
aF0.5862077162742615
aF0.5920296358108521
aF0.6155902996778488
aF0.5939105752944946
aF0.6257625981330872
aF0.6032109698772431
aF0.5726618438720703
aF0.6094230682849884
aF0.5973144486427308
aF0.6220050848960876
aF0.5887358273029327
aF0.5833973206520081
aF0.6073661732196808
aF0.5986653453826905
aF0.6178081441760063
aF0.5993428162574768
aF0.579662351322174
aF0.6020910502433777
aF0.5923557902812958
aF0.6274132134437561
aF0.5915074650764466
aF0.5897854928970336
aF0.611633413028717
aF0.5871911916255951
aF0.6268093367815017
aF0.5876020405769348
aF0.5799179639816284
aF0.5898492766857147
aF0.5856927686214447
aF0.6188418836593628
aF0.5896840078830718
aF0.5828425130844116
aF0.616005414056778
aF0.5892669650316238
aF0.6201106997489929
aF0.595368780708313
aF0.5985481139183044
aF0.6059874000072479
aF0.5913716132879258
aF0.6020567943096161
aF0.5991460391044616
aF0.5883044481277466
aF0.5955613809108734
aF0.6144581001281738
aF0.6242790272712707
aF0.5878396944999695
aF0.5794805669307709
aF0.6050252249717712
aF0.5820112340927124
aF0.617525564622879
aF0.5807489301204681
aF0.5819336277008057
aF0.603694161939621
aF0.5942103630065918
aF0.6199968029975891
aF0.5861566512584686
aF0.5828542323589325
aF0.5995098887443543
aF0.5874986385464668
aF0.6145323706865311
aF0.5913440485000611
aF0.5867883444786072
aF0.6007409147262573
aF0.6018361477017402
aF0.6322335169792175
aF0.5910975416183472
aF0.5737289498806
aF0.6001105507850647
aF0.579706574344635
aF0.6252304790496827
aF0.5924161606788635
aF0.5710269864797592
aF0.6041757470130921
aF0.607342738866806
aF0.619362595796585
aF0.5992358932971954
aF0.594423406791687
aF0.6098828351020813
aF0.5795381506204605
aF0.6065604400873185
aF0.5914215476036072
aF0.5870696014404296
aF0.6034704370021821
aF0.5905050905704499
aF0.607722215461731
aF0.5812117789268494
aF0.5752385543346406
aF0.600382602262497
aF0.5825540884137154
aF0.6145127955913544
aF0.5834766687393188
aF0.5742736965656281
aF0.6092426291942596
aF0.5917798646450043
aF0.620053973197937
aF0.5804075838088989
aF0.5865670654296875
aF0.6047843936204911
aF0.583870276594162
aF0.6243145409107208
aF0.5895414009094239
aF0.5721368669509888
aF0.6042035447597504
aF0.5926492420911789
aF0.6111179143428802
aF0.592155193901062
aF0.5862373761653901
aF0.5917017832756043
aF0.5886050579071045
aF0.6231644606590271
aF0.5798201745986938
aF0.5715215950012207
aF0.6010773042678833
aF0.5728148109912873
aF0.6215792459964752
aF0.5728377063274384
aF0.567902056503296
aF0.5976983372688294
aF0.5887669283628464
aF0.6193342870235443
aF0.5982533972740174
aF0.592723773765564
aF0.5973383565425873
aF0.5851857128620148
aF0.6168924203872681
aF0.5771625688552856
aF0.5810373316287994
aF0.6137874886989594
aF0.591362109375
aF0.6199278193473816
aF0.5756586472988129
aF0.5768703288555145
aF0.6037198296070099
aF0.5926329119682312
aF0.6174140661716461
aF0.5797785130500793
aF0.5672175098896026
aF0.5975561301708221
aF0.579878820514679
aF0.6209480037927627
aF0.5813115051269532
aF0.5693149309158325
aF0.6042031044006347
aF0.5794302476286888
aF0.618564230966568
aF0.5870433029174804
aF0.5690368773460388
aF0.5874131606340408
aF0.5829272213220597
aF0.608546954870224
aF0.5856816639900208
aF0.5744488230705261
aF0.6086238701343536
aF0.5849810557126999
aF0.6179258685111999
aF0.5754533568382263
aF0.5789803737640381
aF0.5907350628614426
aF0.5905573693990708
aF0.6303853438854218
aF0.58591998462677
aF0.5804460331916809
aF0.6162035209178924
aF0.5848933718681335
aF0.6148785611629486
aF0.5765327745437622
aF0.5839834411621094
aF0.6024034680366516
aF0.5922686151623726
aF0.6160536537408828
aF0.5754830282211304
aF0.5791242762565613
aF0.5930314996242523
aF0.5866066348075867
aF0.621247369146347
aF0.5770621957778931
aF0.5671103557109832
aF0.6017721847057342
aF0.5774006460428238
aF0.608366763162613
aF0.5875907473564148
aF0.5819176004886627
aF0.6052252739429473
aF0.5875780739426613
aF0.6049791794300079
aF0.5870855490684509
aF0.5779690815925598
aF0.6022623946666718
aF0.5788678417921066
aF0.6122753129005433
aF0.5730284287452698
aF0.5661276195049286
aF0.5950652317523957
aF0.5756703177928925
aF0.6094148314952851
aF0.5803698187828064
aF0.5711752096652984
aF0.6069767003059388
aF0.5766064867019653
aF0.6063275752067566
aF0.5830235495567322
aF0.5876380479812622
aF0.6018220622062683
aF0.5914311604022979
aF0.6175864780902862
aF0.5691104769229889
aF0.5756335025310516
aF0.5926757523536682
aF0.5832834594488144
aF0.6046666895866394
aF0.5833493562698364
aF0.5684552927494049
aF0.5965044348239898
aF0.5827419194698333
aF0.6096986284732818
aF0.5703058745384216
aF0.5785204178810119
aF0.5964005636692047
aF0.5830518987417221
aF0.6162736380577087
aF0.5765380727767945
aF0.575239972448349
aF0.598541478061676
aF0.5952270959615708
aF0.5969642138957977
aF0.586391117143631
aF0.5760529633998871
aF0.5976058244466782
aF0.5742850361585617
aF0.6128190415859223
aF0.58554445104599
aF0.5748081605672837
aF0.6063824679851532
aF0.5840140862703324
aF0.6141949487686157
aF0.5946912446975708
aF0.5726631238937377
aF0.5858811264514923
aF0.5761727657198906
aF0.6053780587673188
aF0.5838720129013062
aF0.5726040314674378
aF0.591938428068161
aF0.5908344058990479
aF0.5997829125404358
aF0.5764700526237487
aF0.5620608696460724
aF0.5887007205486298
aF0.5748324639081955
aF0.6047749509572983
aF0.5783093200683593
aF0.5713414906978607
aF0.5845174092054367
aF0.5720089354872704
aF0.6086200957298279
aF0.5827073248386383
aF0.5771233333587646
aF0.58963142786026
aF0.5689713552236557
aF0.6026577584266662
aF0.5770117832183838
aF0.5740239685058593
aF0.5901147298812867
aF0.5924399858474731
aF0.60819826836586
aF0.5738776218414307
aF0.5634824131965637
aF0.5921437359333038
aF0.5799794930934906
aF0.6062853117704391
aF0.5729095201492309
aF0.5679565714359284
aF0.5911837332010269
aF0.5836751522541046
aF0.612493831205368
aF0.570628103351593
aF0.5706413572311402
aF0.577367545413971
aF0.5734861199259758
aF0.6068494484901428
aF0.5815121596336364
aF0.5747420551300049
aF0.5899191064834595
aF0.5792026131629944
aF0.6249703815937042
aF0.5694890525817871
aF0.5768907452821732
aF0.5895472899436951
aF0.5804465735435486
aF0.6038365727901459
aF0.5786945223331451
aF0.578016760969162
aF0.5934915427684784
aF0.575923319864273
aF0.6184031628608704
aF0.5713461155891418
aF0.565626727104187
aF0.6128694558620453
aF0.5905518486499787
aF0.604814692902565
aF0.5686373645782471
aF0.571702237868309
aF0.5907541322231292
aF0.5787907070755959
aF0.6044040580034256
aF0.573081281375885
aF0.5830151826858521
aF0.598220516872406
aF0.5708030537605285
aF0.6140807929992675
aF0.5736442766189576
aF0.580821176147461
aF0.5880819082498551
aF0.5636925357580185
aF0.6025629114627838
aF0.56959890499115
aF0.5700405983924866
aF0.5956776884078979
aF0.5734735058307647
aF0.6067041244983673
aF0.569522907114029
aF0.5669980158805847
aF0.5945861043930054
aF0.5770899615764618
aF0.6024587839126587
aF0.5711582751274109
aF0.5695293057441712
aF0.5970023769855499
aF0.5681027668714523
aF0.5927404924392701
aF0.5654807914733887
aF0.5688324333190918
aF0.5947213381528854
aF0.5770629898786545
aF0.6086993576526641
aF0.5630148299217224
aF0.557697458600998
aF0.5894071630477905
aF0.5758132649540901
aF0.6033171150326729
aF0.5685069790840149
aF0.570998640871048
aF0.5996100019216537
aF0.567697131729126
aF0.6000866468429565
aF0.5588921440124511
aF0.574737956905365
aF0.5999594479560852
aF0.5758126001834869
aF0.6129135727405548
aF0.5769210350036621
aF0.5724195781707764
aF0.5835214984893798
aF0.569527222931385
aF0.599789996099472
aF0.5775422920227051
aF0.5763389374256134
aF0.5776416584014893
aF0.5651412806034088
aF0.6178253843784333
aF0.5711994681835174
aF0.5633605055332184
aF0.5806558075428009
aF0.5752094396114349
aF0.6141223352909088
aF0.572597657585144
aF0.5743286748409271
aF0.5810692986726761
aF0.5675307653307915
aF0.6010190593719482
aF0.578786545753479
aF0.5747255681991578
aF0.5947000711441041
aF0.5863065451622009
aF0.6046600723266602
aF0.5790575803756713
aF0.5759014948844909
aF0.5862020653247834
aF0.5791498571872711
aF0.6061880419254303
aF0.5785655349731446
aF0.557798953294754
aF0.5761804492473602
aF0.5682635292291641
aF0.5882415334224701
aF0.5657069595336914
aF0.5694526268482208
aF0.5899248368740082
aF0.5647741437852383
aF0.5871215438604355
aF0.5731839374542236
aF0.5703188279628754
aF0.5932722014427185
aF0.5687691666603089
aF0.5939076098918915
aF0.5719448163032532
aF0.5692316098690033
aF0.5936047010421753
aF0.5634680741071701
aF0.6050103418827056
aF0.5702924205780029
aF0.5681785192489625
aF0.5961120832204819
aF0.5808834101200103
aF0.601017134642601
aF0.5656755009651184
aF0.5654815495491028
aF0.5852512294769288
aF0.5732271841049195
aF0.6131039745569229
aF0.5648015780448914
aF0.5597845099925994
aF0.5900832006692887
aF0.5645390482664109
aF0.5983870505332947
aF0.5763295783996581
aF0.5795568642616272
aF0.5995746772289277
aF0.5633414842128753
aF0.5925937521457673
aF0.5716206822395324
aF0.5669271485328674
aF0.5783091549873352
aF0.5699391040325165
aF0.5982944751024246
aF0.5753886976242065
aF0.5642590295791626
aF0.5728183888435364
aF0.5701513023614884
aF0.606774272274971
aF0.575731510591507
aF0.5618818151950836
aF0.5870380818128585
aF0.5655258438944817
aF0.6141362622261047
aF0.5760782147407532
aF0.5648859514236451
aF0.5870421348333359
aF0.5679487969875335
aF0.6039654424190521
aF0.5707401676177979
aF0.5704314694404602
aF0.564615084028244
aF0.5704727345466614
aF0.5989520826816559
aF0.5612927779197693
aF0.5634618741035461
aF0.5815747258663178
aF0.5812259711265564
aF0.5965029762506485
aF0.568749462223053
aF0.5695889827251435
aF0.5845875846624374
aF0.5784344193458557
aF0.5910837762832641
aF0.5690070578098297
aF0.5643640595436096
aF0.5822908624649048
aF0.5664930431842804
aF0.6027934029102325
aF0.5656041646957397
aF0.5711436314582825
aF0.5906424090385437
aF0.5784712206602096
aF0.5941817825078964
aF0.5712892911911011
aF0.5684685954570771
aF0.5749016803741455
aF0.5707460705280304
aF0.5857311817646027
aF0.5703602317333222
aF0.5631173616886139
aF0.5759592853069305
aF0.5655801570892334
aF0.6015012745857239
aF0.5727360317230225
aF0.5480393153190612
aF0.5876433300971985
aF0.5716626684427262
aF0.5962937854766845
aF0.5676210815906525
aF0.5674814815998077
aF0.5783617641448975
aF0.5626718476295471
aF0.609473690533638
aF0.5703145351886749
aF0.5635538218021393
aF0.5829854854106903
aF0.5737419865608215
aF0.6005581675052643
aF0.5797274562835694
aF0.5639922602653503
aF0.5826103507995606
aF0.5726718637228012
aF0.5986655816555023
aF0.5695592881202698
aF0.5565973726272583
aF0.5711051353216171
aF0.5678031795024872
aF0.6039839758872986
aF0.5714046817302704
aF0.5616661448478699
aF0.5831297522068024
aF0.5662636566638947
aF0.6026552154302597
aF0.5615025733947754
aF0.5630839638710022
aF0.5909986135959625
aF0.5667932728290558
aF0.5931573390960694
aF0.5685210727214813
aF0.5507606897354126
aF0.5825494482040405
aF0.568307369184494
aF0.5931008157253266
aF0.5754385081291199
aF0.5671987027406693
aF0.5849845319747925
aF0.5853341858029365
aF0.6023397814512252
aF0.564805774641037
aF0.5712903589725494
aF0.5726356532096862
aF0.5642990550518036
aF0.5854626780033112
aF0.5634081071853637
aF0.5700267453670502
aF0.5860429413557052
aF0.5662725179672241
aF0.5869866547107696
aF0.5644944660186768
aF0.555781684589386
aF0.5813829754590988
aF0.5707312296390533
aF0.5952152452468872
aF0.5669755442619324
aF0.5638124971389771
aF0.59192509932518
aF0.5562149942874909
aF0.597174063539505
aF0.5611214143753052
aF0.556194646692276
aF0.5775479799747467
aF0.561542268872261
aF0.5807832390069961
aF0.5649947630882263
aF0.555877712059021
aF0.5908828125
aF0.5658597520589829
aF0.6034525140762329
aF0.563806007194519
aF0.5522658545017243
aF0.5833849409103393
aF0.5688547992944717
aF0.5892617324352264
aF0.5652245059967042
aF0.5559168761253357
aF0.5774500990152359
aF0.5617254109382629
aF0.5905434942483901
aF0.5723771265029908
aF0.5664258432149887
aF0.5830233469247817
aF0.5572149457216263
aF0.6059463453412056
aF0.5558298438549042
aF0.5503689062118531
aF0.5833600988864899
aF0.565012694644928
aF0.5967107989311218
aF0.5618177958488464
aF0.5579104375362396
aF0.5774116958141327
aF0.5716677995920181
aF0.6020148775100708
aF0.5699475112915039
aF0.5733517409801483
aF0.5765916158914566
aF0.5622107741117477
aF0.5967568033218383
aF0.5549562738895416
aF0.5619695747852326
aF0.5839721750020981
aF0.5750965826511383
aF0.6051410466194153
aF0.5710735008239746
a.