(lp0
F0.8916
aF0.8042
aF0.7165
aF0.6741
aF0.6243
aF0.5777
aF0.5501
aF0.5131
aF0.4848
aF0.4589
aF0.4449
aF0.4362
aF0.4197
aF0.4053
aF0.3858
aF0.38
aF0.3618
aF0.398
aF0.3494
aF0.3689
aF0.3402
aF0.3347
aF0.3263
aF0.334
aF0.3139
aF0.3277
aF0.3084
aF0.3122
aF0.3014
aF0.3186
aF0.2761
aF0.3052
aF0.3039
aF0.2793
aF0.2917
aF0.2944
aF0.2704
aF0.279
aF0.2681
aF0.2688
aF0.2662
aF0.2586
aF0.261
aF0.2602
aF0.2567
aF0.25
aF0.2569
aF0.2495
aF0.242
aF0.2415
aF0.2447
aF0.2362
aF0.2446
aF0.2417
aF0.2341
aF0.232
aF0.2334
aF0.2379
aF0.229
aF0.2326
aF0.2273
aF0.2284
aF0.2261
aF0.2239
aF0.2202
aF0.2203
aF0.2187
aF0.2202
aF0.2154
aF0.2095
aF0.2218
aF0.2161
aF0.2033
aF0.2169
aF0.2167
aF0.205
aF0.2028
aF0.2132
aF0.2025
aF0.2418
aF0.1985
aF0.2057
aF0.2065
aF0.2416
aF0.2043
aF0.201
aF0.1963
aF0.2269
aF0.1927
aF0.1984
aF0.1911
aF0.2249
aF0.1924
aF0.2039
aF0.1949
aF0.2227
aF0.1845
aF0.1971
aF0.1836
aF0.2165
aF0.183
aF0.1928
aF0.1822
aF0.2124
aF0.1775
aF0.1838
aF0.1867
aF0.1984
aF0.1863
aF0.184
aF0.1781
aF0.2006
aF0.1803
aF0.1819
aF0.1795
aF0.1946
aF0.1711
aF0.1812
aF0.1755
aF0.1939
aF0.1732
aF0.1768
aF0.1797
aF0.1936
aF0.1806
aF0.1779
aF0.1666
aF0.1913
aF0.1634
aF0.1774
aF0.168
aF0.1865
aF0.1669
aF0.1737
aF0.166
aF0.1809
aF0.1599
aF0.1678
aF0.1702
aF0.1805
aF0.1574
aF0.1718
aF0.1661
aF0.1798
aF0.1605
aF0.1715
aF0.1643
aF0.1762
aF0.1585
aF0.1622
aF0.1571
aF0.17
aF0.1627
aF0.1614
aF0.1577
aF0.1786
aF0.1505
aF0.164
aF0.1566
aF0.1695
aF0.1583
aF0.1653
aF0.1553
aF0.166
aF0.1572
aF0.1627
aF0.1496
aF0.1564
aF0.1743
aF0.1928
aF0.1569
aF0.1548
aF0.1477
aF0.1647
aF0.1979
aF0.155
aF0.1533
aF0.1488
aF0.1652
aF0.1846
aF0.1548
aF0.1572
aF0.1532
aF0.1653
aF0.1744
aF0.1492
aF0.1498
aF0.1527
aF0.1618
aF0.1733
aF0.1549
aF0.149
aF0.1457
aF0.157
aF0.1788
aF0.1479
aF0.1496
aF0.1469
aF0.1616
aF0.1696
aF0.1496
aF0.1517
aF0.1486
aF0.1507
aF0.164
a.