(lp0
F0.9003
aF0.8963
aF0.898
aF0.8878
aF0.877
aF0.8538
aF0.8125
aF0.796
aF0.7759
aF0.7529
aF0.7279
aF0.7174
aF0.7013
aF0.6842
aF0.6731
aF0.655
aF0.6397
aF0.6313
aF0.6217
aF0.6025
aF0.6042
aF0.5758
aF0.5756
aF0.5703
aF0.5553
aF0.5447
aF0.5336
aF0.5249
aF0.5186
aF0.507
aF0.4867
aF0.4917
aF0.4852
aF0.4776
aF0.4633
aF0.4575
aF0.453
aF0.4455
aF0.4424
aF0.428
aF0.4322
aF0.4187
aF0.4113
aF0.4131
aF0.4016
aF0.3959
aF0.3982
aF0.3877
aF0.3908
aF0.3789
aF0.3662
aF0.3655
aF0.3791
aF0.3532
aF0.3536
aF0.3603
aF0.3373
aF0.3378
aF0.3366
aF0.3312
aF0.3334
aF0.3226
aF0.3111
aF0.3167
aF0.3175
aF0.3076
aF0.3084
aF0.3139
aF0.2979
aF0.2932
aF0.2943
aF0.2943
aF0.2957
aF0.2932
aF0.283
aF0.2816
aF0.2642
aF0.2811
aF0.2735
aF0.2997
aF0.2664
aF0.2726
aF0.2566
aF0.2873
aF0.2668
aF0.2647
aF0.2555
aF0.2847
aF0.2501
aF0.2565
aF0.2461
aF0.2678
aF0.2361
aF0.2575
aF0.2374
aF0.2603
aF0.2383
aF0.2408
aF0.2414
aF0.2484
aF0.2348
aF0.2437
aF0.227
aF0.2447
aF0.2267
aF0.2323
aF0.219
aF0.2397
aF0.2262
aF0.2253
aF0.2136
aF0.2306
aF0.2212
aF0.2155
aF0.2137
aF0.2259
aF0.219
aF0.2171
aF0.2128
aF0.2173
aF0.2075
aF0.2181
aF0.2077
aF0.2181
aF0.1958
aF0.2069
aF0.1977
aF0.2072
aF0.1954
aF0.202
aF0.198
aF0.2094
aF0.1945
aF0.1957
aF0.196
aF0.207
aF0.1876
aF0.1969
aF0.1904
aF0.1997
aF0.1945
aF0.1961
aF0.1903
aF0.1998
aF0.1855
aF0.195
aF0.181
aF0.195
aF0.1826
aF0.1803
aF0.1805
aF0.1902
aF0.18
aF0.1794
aF0.1758
aF0.1839
aF0.1787
aF0.1794
aF0.1648
aF0.1874
aF0.173
aF0.1735
aF0.1779
aF0.1817
aF0.1723
aF0.1769
aF0.1653
aF0.1687
aF0.1787
aF0.2172
aF0.1759
aF0.1651
aF0.1653
aF0.1721
aF0.2122
aF0.1764
aF0.1652
aF0.1667
aF0.1709
aF0.1953
aF0.1657
aF0.1622
aF0.1614
aF0.166
aF0.1901
aF0.1637
aF0.1649
aF0.1566
aF0.167
aF0.1857
aF0.1634
aF0.163
aF0.1554
aF0.1654
aF0.1845
aF0.1648
aF0.1631
aF0.1532
aF0.1646
aF0.1794
aF0.1551
aF0.1603
aF0.1539
aF0.1611
aF0.1754
aF0.1563
aF0.1556
aF0.1492
aF0.1576
aF0.1693
aF0.1579
aF0.1585
aF0.1504
aF0.1564
aF0.1679
aF0.1466
aF0.1525
aF0.1516
aF0.1552
aF0.1685
aF0.1467
aF0.1459
aF0.1531
aF0.1526
aF0.1673
aF0.156
aF0.146
aF0.1476
aF0.1515
aF0.1564
aF0.145
aF0.1524
aF0.1446
aF0.1509
aF0.1602
aF0.1426
aF0.1486
aF0.1411
aF0.158
aF0.1566
aF0.1437
aF0.1418
aF0.137
aF0.1553
aF0.1506
aF0.1391
aF0.146
aF0.1334
aF0.1483
aF0.1544
aF0.1399
aF0.1425
aF0.1364
aF0.147
aF0.1453
aF0.1431
aF0.1438
aF0.1329
aF0.1455
aF0.1555
aF0.1369
aF0.1395
aF0.1369
aF0.1424
aF0.1503
aF0.139
aF0.1379
aF0.1294
aF0.1429
aF0.1476
aF0.1358
aF0.1391
aF0.1273
aF0.1406
aF0.1393
aF0.1359
aF0.1407
aF0.1321
aF0.1391
aF0.1365
aF0.1333
aF0.1358
aF0.133
aF0.1343
aF0.1417
aF0.1349
aF0.1322
aF0.1284
aF0.1392
aF0.1394
aF0.1295
aF0.1379
aF0.1262
aF0.1378
aF0.1459
aF0.1295
aF0.1331
aF0.1253
aF0.1357
aF0.1345
aF0.1336
aF0.1317
aF0.1282
aF0.137
aF0.1349
aF0.1318
aF0.1342
aF0.1176
aF0.1352
aF0.1404
aF0.1256
aF0.135
aF0.1228
aF0.129
aF0.1341
aF0.1278
aF0.1305
aF0.1224
aF0.1289
aF0.133
aF0.1222
aF0.1244
aF0.1305
aF0.1332
aF0.1265
aF0.1265
aF0.124
aF0.1194
aF0.1274
aF0.1332
aF0.1242
aF0.1244
aF0.1216
aF0.1284
aF0.1243
aF0.1236
aF0.1236
aF0.1169
aF0.1282
aF0.1263
aF0.1218
aF0.1228
aF0.1212
aF0.1268
aF0.1302
aF0.1236
aF0.1229
aF0.1214
aF0.1305
aF0.1229
aF0.1158
aF0.1224
aF0.1236
aF0.1267
aF0.1287
aF0.1185
aF0.1194
aF0.1142
aF0.125
aF0.1202
aF0.1193
aF0.1234
aF0.1171
aF0.1247
aF0.1234
aF0.1225
aF0.1227
aF0.1187
aF0.1181
aF0.1182
aF0.1136
aF0.1118
aF0.118
aF0.1141
aF0.1255
aF0.1209
aF0.1187
aF0.1147
aF0.1237
aF0.1171
aF0.1144
aF0.1196
aF0.1143
aF0.1144
aF0.1258
aF0.1199
aF0.1223
aF0.1134
aF0.1182
aF0.1138
aF0.1194
aF0.1171
aF0.1147
aF0.1221
aF0.1148
aF0.1201
aF0.1127
aF0.1141
aF0.1212
aF0.1136
aF0.1147
aF0.119
aF0.1092
aF0.1201
aF0.1149
aF0.1179
aF0.116
aF0.1022
aF0.1164
aF0.1171
aF0.1142
aF0.1172
aF0.1068
aF0.1202
aF0.1152
aF0.1181
aF0.116
aF0.1068
aF0.1154
aF0.1117
aF0.1114
aF0.1118
aF0.103
aF0.1122
aF0.1166
aF0.1086
aF0.1121
aF0.1077
aF0.1139
aF0.1085
aF0.1076
aF0.1078
aF0.1075
aF0.1116
aF0.1134
aF0.1128
aF0.1155
aF0.1047
aF0.1102
aF0.1094
aF0.1084
aF0.1203
aF0.1062
aF0.112
aF0.1147
aF0.1086
aF0.1154
aF0.1047
aF0.1173
aF0.1097
aF0.1051
aF0.1111
aF0.1063
aF0.1102
aF0.1101
aF0.1071
aF0.1073
aF0.1034
aF0.1182
aF0.1114
aF0.1082
aF0.1129
aF0.103
aF0.1147
aF0.1093
aF0.1034
aF0.1084
aF0.1019
aF0.1105
aF0.1124
aF0.1032
aF0.1085
aF0.1092
aF0.1091
aF0.1108
aF0.1047
aF0.1068
aF0.1034
aF0.1106
aF0.1078
aF0.1032
aF0.1087
aF0.0979
aF0.1099
aF0.1024
aF0.106
aF0.1045
aF0.1024
aF0.1089
aF0.1085
aF0.1062
aF0.1013
aF0.1044
aF0.112
aF0.105
aF0.1026
aF0.0872
aF0.0765
aF0.082
aF0.0772
aF0.0799
aF0.0804
aF0.0748
aF0.0777
aF0.0757
aF0.0792
aF0.0765
aF0.0705
aF0.0753
aF0.0717
aF0.0713
aF0.0746
aF0.0712
aF0.0718
aF0.0701
aF0.0759
aF0.0759
aF0.0706
aF0.072
aF0.0721
aF0.0753
aF0.0763
aF0.0697
aF0.0685
aF0.0721
aF0.071
aF0.0729
aF0.0655
aF0.0732
aF0.0717
aF0.0688
aF0.0686
aF0.0675
aF0.0693
aF0.0711
aF0.0712
aF0.0729
aF0.0632
aF0.0678
aF0.0661
aF0.0695
aF0.0699
aF0.0659
aF0.0682
aF0.0678
aF0.0678
aF0.0674
aF0.0623
aF0.0714
aF0.0685
aF0.0673
aF0.069
aF0.0636
aF0.0707
aF0.0697
aF0.0665
aF0.0689
aF0.0641
aF0.0713
aF0.0672
aF0.0681
aF0.0724
aF0.0622
aF0.0651
aF0.0658
aF0.0696
aF0.0657
aF0.0624
aF0.0661
aF0.0649
aF0.0645
aF0.0677
aF0.0615
aF0.0656
aF0.0673
aF0.0704
aF0.0712
aF0.0608
aF0.0622
aF0.0665
aF0.0682
aF0.0684
aF0.059
aF0.0647
aF0.0616
aF0.0622
aF0.0684
aF0.0596
aF0.0678
aF0.0656
aF0.0617
aF0.07
aF0.0591
aF0.0659
aF0.0636
aF0.0672
aF0.066
aF0.0608
aF0.0642
aF0.0635
aF0.062
aF0.0655
aF0.0654
aF0.0651
aF0.0645
a.