(lp0
F0.8691
aF0.7749
aF0.7128
aF0.6773
aF0.6331
aF0.5997
aF0.5782
aF0.5477
aF0.5222
aF0.516
aF0.4809
aF0.4452
aF0.4323
aF0.4125
aF0.4119
aF0.3866
aF0.3751
aF0.3934
aF0.3589
aF0.3722
aF0.3528
aF0.3545
aF0.3236
aF0.3374
aF0.3345
aF0.317
aF0.3061
aF0.3148
aF0.2949
aF0.3069
aF0.2899
aF0.2997
aF0.312
aF0.28
aF0.2918
aF0.2944
aF0.2664
aF0.273
aF0.2834
aF0.2758
aF0.2759
aF0.2802
aF0.2563
aF0.2535
aF0.2626
aF0.246
aF0.2545
aF0.2606
aF0.2447
aF0.2466
aF0.2499
aF0.2442
aF0.2353
aF0.237
aF0.2245
aF0.2304
aF0.2288
aF0.2242
aF0.2366
aF0.2315
aF0.2291
aF0.2299
aF0.2206
aF0.2187
aF0.2196
aF0.2165
aF0.2108
aF0.2177
aF0.2048
aF0.2137
aF0.2119
aF0.208
aF0.2056
aF0.2105
aF0.1996
aF0.2024
aF0.1902
aF0.2117
aF0.2014
aF0.2471
aF0.1913
aF0.1946
aF0.2004
aF0.232
aF0.2005
aF0.2027
aF0.1933
aF0.228
aF0.1921
aF0.1977
aF0.1943
aF0.2236
aF0.1865
aF0.1998
aF0.185
aF0.2122
aF0.1864
aF0.1827
aF0.1827
aF0.21
aF0.1721
aF0.1918
aF0.1795
aF0.2087
aF0.1741
aF0.1892
aF0.1782
aF0.2002
aF0.1784
aF0.1846
aF0.1748
aF0.2034
aF0.1752
aF0.1775
aF0.1709
aF0.1932
aF0.1685
aF0.1676
aF0.1768
aF0.1824
aF0.1679
aF0.1716
aF0.1684
aF0.19
aF0.1647
aF0.171
aF0.1636
aF0.1916
aF0.1628
aF0.1653
aF0.173
aF0.1808
aF0.1593
aF0.1651
aF0.1633
aF0.1779
aF0.1655
aF0.1633
aF0.1635
aF0.1762
aF0.1588
aF0.1659
aF0.158
aF0.1727
aF0.1529
aF0.1529
aF0.1545
aF0.1718
aF0.1595
aF0.1579
aF0.1517
aF0.1727
aF0.1511
aF0.1576
aF0.15
aF0.1648
aF0.1489
aF0.1554
aF0.1507
aF0.1633
aF0.1503
aF0.1562
aF0.1511
aF0.1603
aF0.1557
aF0.1503
aF0.1385
aF0.1467
aF0.1597
aF0.1995
aF0.1521
aF0.1514
aF0.1473
aF0.1609
aF0.1859
aF0.1509
aF0.1465
aF0.1501
aF0.1561
aF0.1818
aF0.1452
aF0.1439
aF0.1566
aF0.1536
aF0.1786
aF0.1429
aF0.1481
aF0.1455
aF0.1575
aF0.1696
aF0.1487
aF0.1476
aF0.1423
aF0.1519
aF0.1723
aF0.1427
aF0.151
aF0.1414
aF0.1496
aF0.1691
aF0.135
aF0.1384
aF0.1364
aF0.1492
aF0.1653
aF0.1383
aF0.1506
aF0.1339
aF0.151
aF0.1646
aF0.1421
aF0.1377
aF0.1436
aF0.1421
aF0.1621
aF0.1365
aF0.1432
aF0.1419
aF0.1416
aF0.1527
aF0.1401
aF0.1406
aF0.135
aF0.1488
aF0.1586
aF0.1325
aF0.14
aF0.1388
aF0.1536
aF0.1589
aF0.1354
aF0.1388
aF0.1347
aF0.1441
aF0.1455
aF0.1395
aF0.1411
aF0.1384
aF0.1422
aF0.1533
aF0.1344
aF0.1383
aF0.1313
aF0.1456
aF0.147
aF0.1339
aF0.1353
aF0.1341
aF0.1447
aF0.1431
aF0.1363
aF0.136
aF0.1323
aF0.1386
aF0.1456
aF0.1329
aF0.1359
aF0.1334
aF0.1446
aF0.1486
aF0.1282
aF0.1371
aF0.1316
aF0.138
aF0.1481
aF0.131
aF0.1344
aF0.1291
aF0.1291
aF0.1313
aF0.1255
aF0.1293
aF0.1365
aF0.1395
aF0.141
aF0.129
aF0.1286
aF0.1252
aF0.1378
aF0.1349
aF0.1306
aF0.1369
aF0.132
aF0.1302
aF0.133
aF0.1289
aF0.1342
aF0.1242
aF0.1397
aF0.1353
aF0.1264
aF0.1321
aF0.1221
aF0.1327
aF0.1373
aF0.1274
aF0.1294
aF0.1295
aF0.1356
aF0.1321
aF0.1321
aF0.1278
aF0.1228
aF0.1307
aF0.1341
aF0.12
aF0.1285
aF0.1188
aF0.1236
aF0.133
aF0.1237
aF0.1264
aF0.1195
aF0.1337
aF0.129
aF0.1242
aF0.122
aF0.1195
aF0.126
aF0.1277
aF0.1176
aF0.1265
aF0.1256
aF0.1255
aF0.1268
aF0.1261
aF0.1282
aF0.1201
aF0.1233
aF0.1295
aF0.1201
aF0.1235
aF0.1217
aF0.1289
aF0.1279
aF0.1249
aF0.1228
aF0.1171
aF0.1328
aF0.1264
aF0.1179
aF0.1227
aF0.121
aF0.1299
aF0.121
aF0.1179
aF0.1169
aF0.1255
aF0.1254
aF0.1267
aF0.1187
aF0.1197
aF0.117
aF0.1169
aF0.1246
aF0.1139
aF0.1241
aF0.1126
aF0.1255
aF0.1218
aF0.1231
aF0.1205
aF0.1155
aF0.1233
aF0.1204
aF0.1165
aF0.1118
aF0.1206
aF0.1172
aF0.1217
aF0.1229
aF0.1261
aF0.1241
aF0.1252
aF0.118
aF0.1203
aF0.127
aF0.1166
aF0.1197
aF0.1299
aF0.1136
aF0.1246
aF0.1123
aF0.1235
aF0.1201
aF0.1119
aF0.1201
aF0.1109
aF0.1241
aF0.124
aF0.1172
aF0.1295
aF0.1202
aF0.1158
aF0.1196
aF0.1137
aF0.1272
aF0.1163
aF0.1275
aF0.12
aF0.1135
aF0.1186
aF0.1204
aF0.1196
aF0.1219
aF0.1124
aF0.1124
aF0.1127
aF0.1232
aF0.1152
aF0.1253
aF0.1174
aF0.1165
aF0.123
aF0.1183
aF0.118
aF0.1238
aF0.1183
aF0.1174
aF0.1193
aF0.1185
aF0.1231
aF0.113
aF0.1178
aF0.1206
aF0.1121
aF0.1149
aF0.1115
aF0.1245
aF0.1184
aF0.1124
aF0.1158
aF0.1068
aF0.1183
aF0.1134
aF0.1145
aF0.1162
aF0.1139
aF0.1193
aF0.1112
aF0.1092
aF0.1143
aF0.1089
aF0.1167
aF0.112
aF0.1111
aF0.1138
aF0.1067
aF0.1201
aF0.111
aF0.1155
aF0.116
aF0.1095
aF0.1162
aF0.1145
aF0.1166
aF0.1225
aF0.1077
aF0.1164
aF0.1159
aF0.1129
aF0.1102
aF0.1123
aF0.1112
aF0.1074
aF0.1053
aF0.1161
aF0.1076
aF0.1143
aF0.1149
aF0.1096
aF0.1224
aF0.1085
aF0.1255
aF0.1115
aF0.1081
aF0.1136
aF0.1169
aF0.1145
aF0.1092
aF0.1137
aF0.1181
aF0.1134
aF0.114
aF0.1105
aF0.1089
aF0.1206
aF0.1155
aF0.1132
aF0.1121
aF0.1031
aF0.1106
aF0.1136
aF0.1182
aF0.1189
aF0.1222
aF0.0975
aF0.0848
aF0.086
aF0.0819
aF0.0823
aF0.0822
aF0.0786
aF0.0777
aF0.0721
aF0.0814
aF0.0801
aF0.0759
aF0.0824
aF0.0733
aF0.0754
aF0.0791
aF0.0679
aF0.0738
aF0.0695
aF0.0741
aF0.0759
aF0.0715
aF0.0752
aF0.0701
aF0.0723
aF0.0737
aF0.0701
aF0.0722
aF0.0656
aF0.0705
aF0.071
aF0.067
aF0.0715
aF0.0672
aF0.0685
aF0.0699
aF0.0658
aF0.0668
aF0.0665
aF0.0691
aF0.071
aF0.064
aF0.0702
aF0.067
aF0.0667
aF0.0709
aF0.0619
aF0.0712
aF0.0656
aF0.0699
aF0.0667
aF0.0634
aF0.0681
aF0.0615
aF0.066
aF0.072
aF0.0607
aF0.0628
aF0.0642
aF0.064
aF0.0632
aF0.061
aF0.0663
aF0.0614
aF0.0625
aF0.0691
aF0.0633
aF0.0633
aF0.0595
aF0.0644
aF0.0632
aF0.0619
aF0.0661
aF0.0611
aF0.063
aF0.0612
aF0.0601
aF0.0633
aF0.0619
aF0.058
aF0.0654
aF0.0584
aF0.0618
aF0.0581
aF0.0625
aF0.0637
aF0.056
aF0.0621
aF0.0577
aF0.0608
aF0.0622
aF0.0556
aF0.0591
aF0.0628
aF0.0582
aF0.0617
aF0.0569
aF0.0618
aF0.0582
aF0.0616
aF0.0657
aF0.0557
aF0.062
aF0.0588
aF0.0593
aF0.0646
aF0.0582
aF0.0611
aF0.0571
aF0.0588
aF0.0593
aF0.0565
aF0.0569
aF0.0583
aF0.0578
aF0.0589
aF0.0504
aF0.0641
aF0.0599
aF0.06
aF0.0577
aF0.0573
aF0.0598
aF0.0612
aF0.0564
aF0.0566
aF0.0591
aF0.0604
aF0.0568
aF0.0556
aF0.0594
aF0.0547
aF0.0552
aF0.0578
aF0.0576
aF0.0566
aF0.0557
aF0.0556
aF0.0588
aF0.0585
aF0.0593
aF0.053
aF0.0567
aF0.0541
aF0.053
aF0.0564
aF0.0517
aF0.0567
aF0.0558
aF0.0548
aF0.0582
aF0.0477
aF0.0555
aF0.055
aF0.056
aF0.0606
aF0.0552
aF0.0573
aF0.0556
aF0.0556
aF0.0537
aF0.0515
aF0.0564
aF0.0589
aF0.0516
aF0.056
aF0.0527
aF0.0557
aF0.0535
aF0.0567
aF0.0547
aF0.054
aF0.0574
aF0.0558
aF0.0533
aF0.0569
aF0.0511
aF0.0545
aF0.0541
aF0.0548
aF0.0538
aF0.0546
aF0.0554
aF0.0556
aF0.0558
aF0.0543
aF0.052
aF0.0575
aF0.0538
aF0.0558
aF0.0553
aF0.0503
aF0.0573
aF0.0539
aF0.0515
aF0.0553
aF0.0511
aF0.0523
aF0.0518
aF0.0513
aF0.058
aF0.0476
aF0.0542
aF0.0519
aF0.0526
aF0.0551
aF0.0491
aF0.0525
aF0.0507
aF0.0504
aF0.0545
aF0.0506
aF0.053
aF0.0522
aF0.0531
aF0.0568
aF0.0467
aF0.0509
aF0.0545
aF0.0494
aF0.0503
aF0.0471
aF0.0532
aF0.0484
aF0.0495
aF0.0558
aF0.0466
aF0.0535
aF0.0507
aF0.0514
aF0.0548
aF0.0475
aF0.0502
aF0.0512
aF0.0492
aF0.0483
aF0.0463
aF0.0536
aF0.0507
aF0.0494
aF0.0506
aF0.0482
aF0.0528
aF0.0539
aF0.0519
aF0.0506
aF0.045
aF0.0514
aF0.0481
a.