(lp0
F0.8761
aF0.7996
aF0.7427
aF0.6957
aF0.662
aF0.6191
aF0.5838
aF0.5567
aF0.5215
aF0.5046
aF0.4765
aF0.4529
aF0.4364
aF0.4166
aF0.4055
aF0.3895
aF0.3818
aF0.3968
aF0.3566
aF0.368
aF0.3445
aF0.3561
aF0.3372
aF0.3347
aF0.3172
aF0.3189
aF0.3106
aF0.3054
aF0.3044
aF0.3027
aF0.2819
aF0.289
aF0.2951
aF0.284
aF0.284
aF0.2801
aF0.2716
aF0.2716
aF0.2721
aF0.2618
aF0.2672
aF0.2657
aF0.2542
aF0.2567
aF0.2519
aF0.2474
aF0.2515
aF0.2585
aF0.2425
aF0.2418
aF0.2456
aF0.2378
aF0.2381
aF0.2273
aF0.2358
aF0.2294
aF0.2366
aF0.2288
aF0.2295
aF0.2378
aF0.2272
aF0.2228
aF0.219
aF0.2221
aF0.2174
a.