(lp0
F0.8864
aF0.8762
aF0.8013
aF0.7783
aF0.7408
aF0.7064
aF0.7197
aF0.6978
aF0.685
aF0.6854
aF0.6568
aF0.661
aF0.645
aF0.6323
aF0.6293
aF0.6126
aF0.6262
aF0.6249
aF0.5828
aF0.5792
aF0.56
aF0.5739
aF0.5706
aF0.5591
aF0.5469
aF0.5596
aF0.5253
aF0.5181
aF0.513
aF0.5172
aF0.4967
aF0.5091
aF0.4916
aF0.4801
aF0.4824
aF0.4791
aF0.4713
aF0.4793
aF0.4623
aF0.4724
aF0.4628
aF0.4594
aF0.4473
aF0.4434
aF0.4395
aF0.4358
aF0.4465
aF0.4175
aF0.4187
aF0.4272
aF0.4078
aF0.4048
aF0.4215
aF0.4092
aF0.3962
aF0.3974
aF0.392
aF0.3907
aF0.3946
aF0.3859
aF0.3814
aF0.3753
aF0.3691
aF0.3683
aF0.3709
aF0.3523
aF0.3639
aF0.3697
aF0.3717
aF0.3831
aF0.3668
aF0.3525
aF0.3435
aF0.3627
aF0.3439
aF0.3508
aF0.3305
aF0.3502
aF0.3271
aF0.357
aF0.3203
aF0.3372
aF0.321
aF0.3542
aF0.3282
aF0.3202
aF0.3155
aF0.3384
aF0.3182
aF0.3213
aF0.3119
aF0.3294
aF0.3318
aF0.3271
aF0.3188
aF0.3332
aF0.3179
aF0.3247
aF0.3018
aF0.3198
aF0.318
aF0.3086
aF0.2969
aF0.3116
aF0.311
aF0.3094
aF0.3003
aF0.3111
aF0.2999
aF0.3018
aF0.2924
aF0.3048
aF0.2946
aF0.3011
aF0.2828
aF0.3051
aF0.2844
aF0.2959
aF0.2817
aF0.2933
aF0.2978
aF0.299
aF0.2808
aF0.2972
aF0.2799
aF0.2964
aF0.2803
aF0.2888
aF0.2865
aF0.2895
aF0.2787
aF0.2883
aF0.2839
aF0.2809
aF0.2712
aF0.2781
aF0.2674
aF0.2616
aF0.2664
aF0.2759
aF0.2602
aF0.2667
aF0.2556
aF0.2684
aF0.2675
aF0.2714
aF0.2536
aF0.2791
aF0.2631
aF0.2602
aF0.2649
aF0.274
aF0.2641
aF0.2628
aF0.248
aF0.2636
aF0.2694
aF0.2591
aF0.253
aF0.2603
aF0.2492
aF0.2668
aF0.2592
aF0.2553
aF0.2491
aF0.2602
aF0.2455
aF0.25
aF0.2608
aF0.2695
aF0.2513
aF0.2549
aF0.2373
aF0.2498
aF0.2558
aF0.2468
aF0.2552
aF0.2534
aF0.2525
aF0.2575
aF0.2482
aF0.2497
aF0.2424
aF0.2481
aF0.2495
aF0.2312
aF0.2439
aF0.2431
aF0.246
aF0.2455
aF0.2389
aF0.2446
aF0.2396
aF0.2503
aF0.2426
a.