(lp0
F0.8699
aF0.7846
aF0.721
aF0.6737
aF0.6368
aF0.6128
aF0.5863
aF0.5551
aF0.531
aF0.5259
aF0.4762
aF0.4641
aF0.4431
aF0.4227
aF0.4101
aF0.3917
aF0.3714
aF0.3896
aF0.3635
aF0.3756
aF0.3516
aF0.3517
aF0.3294
aF0.3365
aF0.3239
aF0.3219
aF0.2975
aF0.3147
aF0.3019
aF0.3012
aF0.2926
aF0.3013
aF0.3157
aF0.2893
aF0.287
aF0.2998
aF0.2663
aF0.2718
aF0.2845
aF0.268
aF0.2733
aF0.2726
aF0.2581
aF0.2655
aF0.2578
aF0.2516
aF0.2569
aF0.2606
aF0.2514
aF0.2539
aF0.2526
aF0.2409
aF0.2423
aF0.2361
aF0.2245
aF0.2295
aF0.24
aF0.2308
aF0.2332
aF0.2306
aF0.2216
aF0.2271
aF0.2204
aF0.2143
aF0.2207
aF0.2212
aF0.2118
aF0.2183
aF0.2154
aF0.2148
aF0.2139
aF0.2001
aF0.2118
aF0.2163
aF0.2062
aF0.2114
aF0.1974
aF0.2099
aF0.2066
aF0.2498
aF0.2076
aF0.1972
aF0.2059
aF0.2346
aF0.1998
aF0.2051
aF0.193
aF0.2328
aF0.1907
aF0.1975
aF0.1869
aF0.2241
aF0.1971
aF0.2058
aF0.188
aF0.2208
aF0.1893
aF0.1881
aF0.1879
aF0.2089
aF0.1803
aF0.19
aF0.1836
aF0.2119
aF0.1748
aF0.1878
aF0.1809
aF0.2072
aF0.1858
aF0.1851
aF0.1823
aF0.2014
aF0.1751
aF0.1891
aF0.1725
aF0.188
aF0.1805
aF0.1765
aF0.1825
aF0.2026
aF0.1765
aF0.1819
aF0.1718
aF0.1905
aF0.1718
aF0.1792
aF0.164
aF0.1898
aF0.1713
aF0.1722
aF0.1682
aF0.1994
aF0.167
aF0.1741
aF0.1651
aF0.1864
aF0.1651
aF0.1735
aF0.1577
aF0.1828
aF0.1652
aF0.1726
aF0.1589
aF0.1768
aF0.1623
aF0.1616
aF0.1617
aF0.1693
aF0.1665
aF0.1645
aF0.161
aF0.1857
aF0.1586
aF0.1645
aF0.1579
aF0.1687
aF0.1667
aF0.1637
aF0.16
aF0.1733
aF0.1513
aF0.1631
aF0.1544
aF0.178
aF0.158
aF0.1549
aF0.1476
aF0.1531
aF0.1628
aF0.2009
aF0.1564
aF0.1574
aF0.1602
aF0.1646
aF0.1971
aF0.1555
aF0.1471
aF0.1518
aF0.1642
aF0.1873
aF0.158
aF0.1538
aF0.1535
aF0.165
aF0.1805
aF0.153
aF0.1517
aF0.1513
aF0.1613
aF0.1765
aF0.1517
aF0.1478
aF0.159
aF0.1546
aF0.175
aF0.1482
aF0.1595
aF0.1457
aF0.155
aF0.1716
aF0.1416
aF0.1544
aF0.1478
aF0.1574
aF0.1738
aF0.1501
aF0.1587
aF0.1447
aF0.1536
aF0.1663
aF0.1511
aF0.1512
aF0.1466
aF0.1503
aF0.1603
aF0.1403
aF0.1444
aF0.1462
aF0.1533
aF0.1609
aF0.1454
aF0.1405
aF0.1389
aF0.15
aF0.1596
aF0.1476
aF0.1527
aF0.1387
aF0.1535
aF0.1559
aF0.1383
aF0.1439
aF0.1438
aF0.1531
aF0.1499
aF0.1349
aF0.1411
aF0.1327
aF0.1557
aF0.1557
aF0.1378
aF0.1459
aF0.1434
aF0.1496
aF0.1493
aF0.1348
aF0.1419
aF0.1404
aF0.1484
aF0.1542
aF0.1392
aF0.1482
aF0.1381
aF0.1445
aF0.148
aF0.1369
aF0.1291
aF0.1453
aF0.1533
aF0.1596
aF0.139
aF0.1432
aF0.1359
aF0.145
aF0.1425
aF0.1351
aF0.1348
aF0.1359
aF0.1445
aF0.1433
aF0.133
aF0.1351
aF0.1407
aF0.1488
aF0.1429
aF0.1403
aF0.1482
aF0.1338
aF0.1445
aF0.1442
aF0.1362
aF0.1375
aF0.134
aF0.1344
aF0.1395
aF0.1355
aF0.1383
aF0.1357
aF0.1413
aF0.136
aF0.1307
aF0.1416
aF0.1332
aF0.1407
aF0.138
aF0.1314
aF0.1413
aF0.1361
aF0.1421
aF0.1361
aF0.1331
aF0.1348
aF0.1348
aF0.1445
aF0.1444
aF0.1343
aF0.1353
aF0.1244
aF0.1347
aF0.1298
aF0.1265
aF0.1432
aF0.129
aF0.1385
aF0.1405
aF0.1294
aF0.1319
aF0.138
aF0.1348
aF0.1334
aF0.1287
aF0.135
aF0.1326
aF0.1406
aF0.1304
aF0.1303
aF0.1344
aF0.1263
aF0.1314
aF0.1353
aF0.1279
aF0.1274
aF0.1233
aF0.1496
aF0.1371
aF0.1381
aF0.1261
aF0.1268
aF0.1367
aF0.1357
aF0.1317
aF0.1382
aF0.1344
aF0.1396
aF0.1276
aF0.1305
aF0.1272
aF0.1263
aF0.133
aF0.1385
aF0.1329
aF0.1304
aF0.1245
aF0.1305
aF0.1274
aF0.1248
aF0.1375
aF0.121
aF0.1296
aF0.1343
aF0.1261
aF0.128
aF0.1248
aF0.136
aF0.1284
aF0.1242
aF0.1288
aF0.1197
aF0.132
aF0.1303
aF0.1316
aF0.135
aF0.1255
aF0.1294
aF0.1252
aF0.1263
aF0.1352
aF0.1261
aF0.1323
aF0.1317
aF0.1282
aF0.1304
aF0.1213
aF0.1286
aF0.1258
aF0.1206
aF0.1244
aF0.123
aF0.1313
aF0.1277
aF0.1233
aF0.1222
aF0.124
aF0.1285
aF0.1284
aF0.1308
aF0.1277
aF0.1277
aF0.1253
aF0.1308
aF0.1249
aF0.1308
aF0.1212
aF0.1344
aF0.1275
aF0.1268
aF0.1229
aF0.1222
aF0.1324
aF0.1318
aF0.125
aF0.1264
aF0.1183
aF0.1335
aF0.1266
aF0.1229
aF0.1315
aF0.1248
aF0.1321
aF0.1278
aF0.1227
aF0.1229
aF0.1241
aF0.1313
aF0.1283
aF0.1227
aF0.127
aF0.126
aF0.1246
aF0.1307
aF0.1219
aF0.122
aF0.1205
aF0.1274
aF0.1294
aF0.1254
aF0.125
aF0.1248
aF0.1308
aF0.1229
aF0.1247
aF0.1239
aF0.1224
aF0.1294
aF0.1287
aF0.1153
aF0.1264
aF0.1207
aF0.1222
aF0.1181
aF0.1207
aF0.1278
aF0.1171
aF0.1242
aF0.1239
aF0.1209
aF0.1283
aF0.1167
aF0.1297
aF0.1218
aF0.1233
aF0.1228
aF0.1204
aF0.1248
aF0.1188
aF0.1197
aF0.1221
aF0.1131
aF0.1251
aF0.1235
aF0.1174
aF0.1327
aF0.1175
aF0.1229
aF0.1197
aF0.1117
aF0.1242
aF0.1205
aF0.1281
aF0.1225
aF0.1263
aF0.1189
aF0.1194
aF0.1252
aF0.1197
aF0.119
aF0.1213
aF0.1178
aF0.1249
aF0.1157
aF0.1171
aF0.1233
aF0.1169
aF0.1224
aF0.1178
aF0.1267
aF0.0987
aF0.0894
aF0.0959
aF0.0845
aF0.0883
aF0.0895
aF0.0839
aF0.0843
aF0.0803
aF0.0876
aF0.085
aF0.0807
aF0.0837
aF0.0788
aF0.0801
aF0.0829
aF0.0753
aF0.0814
aF0.0731
aF0.0775
aF0.0831
aF0.0763
aF0.08
aF0.0778
aF0.075
aF0.0828
aF0.071
aF0.0767
aF0.0714
aF0.0762
aF0.0763
aF0.0732
aF0.0767
aF0.0725
aF0.0769
aF0.0748
aF0.069
aF0.0764
aF0.0696
aF0.0734
aF0.0735
aF0.0688
aF0.0706
aF0.0714
aF0.0725
aF0.0746
aF0.0662
aF0.072
aF0.0685
aF0.0704
aF0.0701
aF0.0666
aF0.0717
aF0.0693
aF0.0701
aF0.073
aF0.067
aF0.0708
aF0.0672
aF0.0672
aF0.0751
aF0.0665
aF0.0703
aF0.0654
aF0.0684
aF0.0724
aF0.0678
aF0.0664
aF0.0673
aF0.0679
aF0.0662
aF0.0647
aF0.0686
aF0.0637
aF0.0651
aF0.0654
aF0.0645
aF0.0663
aF0.0696
aF0.0649
aF0.0703
aF0.0622
aF0.0655
aF0.059
aF0.0661
aF0.0634
aF0.0643
aF0.0711
aF0.0645
aF0.0631
aF0.0629
aF0.0583
aF0.0678
aF0.0669
aF0.0632
aF0.0686
aF0.06
aF0.0648
aF0.0613
aF0.0624
aF0.0658
aF0.0608
aF0.0694
aF0.0634
aF0.0658
aF0.0685
aF0.0616
aF0.0695
aF0.0635
aF0.064
aF0.0639
aF0.0585
aF0.0625
aF0.0636
aF0.0629
aF0.0597
aF0.056
aF0.0652
aF0.0634
aF0.0657
aF0.0658
aF0.0565
aF0.0628
aF0.0622
aF0.0623
aF0.0648
aF0.0609
aF0.0611
aF0.0565
aF0.0634
aF0.06
aF0.0594
aF0.0634
aF0.0618
aF0.0601
aF0.0638
aF0.0595
aF0.0636
aF0.0633
aF0.0596
aF0.0655
aF0.054
aF0.0624
aF0.0578
aF0.0588
aF0.0607
aF0.056
aF0.0579
aF0.0595
aF0.0577
aF0.0594
aF0.0572
aF0.0585
aF0.0584
aF0.0603
aF0.0609
aF0.0588
aF0.0611
aF0.0608
aF0.0608
aF0.0605
aF0.0548
aF0.059
aF0.0621
aF0.0585
aF0.0575
aF0.0552
aF0.0599
aF0.0591
aF0.0608
aF0.0581
aF0.0564
aF0.0611
aF0.0588
aF0.057
aF0.0596
aF0.0563
aF0.0597
aF0.0565
aF0.0611
aF0.0568
aF0.0543
aF0.0574
aF0.0565
aF0.0582
aF0.0601
aF0.056
aF0.0598
aF0.0577
aF0.0557
aF0.0614
aF0.0558
aF0.0577
aF0.0604
aF0.0584
aF0.0596
aF0.0524
aF0.0596
aF0.0579
aF0.0571
aF0.0618
aF0.0531
aF0.0599
aF0.0564
aF0.0544
aF0.0555
aF0.0538
aF0.0559
aF0.0556
aF0.0557
aF0.0614
aF0.055
aF0.058
aF0.0591
aF0.0558
aF0.0607
aF0.0551
aF0.0563
aF0.0573
aF0.0556
aF0.0542
aF0.0533
aF0.0546
aF0.0563
aF0.0536
aF0.0602
aF0.0518
aF0.0558
aF0.0527
aF0.0564
aF0.0567
aF0.0497
aF0.0579
aF0.0532
aF0.0575
aF0.0542
aF0.0515
aF0.0522
aF0.0529
aF0.0544
aF0.0534
aF0.0522
aF0.055
aF0.0544
aF0.0527
aF0.0565
aF0.052
aF0.0566
aF0.0526
a.