(lp0
F0.892
aF0.8064
aF0.7582
aF0.7223
aF0.6909
aF0.6824
aF0.6496
aF0.6141
aF0.6015
aF0.5685
aF0.5449
aF0.5297
aF0.5012
aF0.4727
aF0.4576
aF0.4479
aF0.4227
aF0.4551
aF0.4063
aF0.4115
aF0.3858
aF0.3995
aF0.3771
aF0.3731
aF0.3605
aF0.3504
aF0.3453
aF0.3464
aF0.345
aF0.3382
aF0.313
aF0.326
aF0.3259
aF0.3111
aF0.3122
aF0.3171
aF0.306
aF0.3051
aF0.2927
aF0.2933
aF0.291
aF0.283
aF0.2843
aF0.288
aF0.2792
aF0.2682
aF0.2817
aF0.2732
aF0.2675
aF0.2682
aF0.2561
aF0.2593
aF0.2608
aF0.2612
aF0.2544
aF0.2488
aF0.2474
aF0.2483
aF0.2531
aF0.2404
aF0.237
aF0.2475
aF0.2385
aF0.2314
aF0.232
aF0.2317
aF0.2293
aF0.2324
aF0.2292
aF0.2307
aF0.2307
aF0.2221
aF0.2202
aF0.2243
aF0.2144
aF0.2111
aF0.212
aF0.2285
aF0.2119
aF0.2473
aF0.2078
aF0.218
aF0.2111
aF0.2467
aF0.2083
aF0.2115
aF0.213
aF0.2357
aF0.2104
aF0.204
aF0.2033
aF0.2254
aF0.2029
aF0.2047
aF0.1965
aF0.23
aF0.2068
aF0.202
aF0.1957
aF0.2202
aF0.2037
aF0.1965
aF0.189
aF0.2141
aF0.1879
aF0.1939
aF0.189
aF0.2137
aF0.1895
aF0.1909
aF0.189
aF0.2098
aF0.1863
aF0.1814
aF0.1879
aF0.2
aF0.1835
aF0.1794
aF0.1864
aF0.2017
aF0.18
aF0.185
aF0.1786
aF0.196
aF0.1788
aF0.1806
aF0.1739
aF0.1937
aF0.1783
aF0.1853
aF0.1777
aF0.1928
aF0.1795
aF0.1806
aF0.1709
aF0.1903
aF0.1743
aF0.1724
aF0.1746
aF0.1896
aF0.1726
aF0.1787
aF0.1635
aF0.1811
aF0.176
aF0.1721
aF0.1594
aF0.1761
aF0.1665
aF0.1665
aF0.1609
aF0.1807
aF0.168
aF0.1642
aF0.1601
aF0.1746
aF0.1618
aF0.169
aF0.1565
aF0.1761
aF0.1616
aF0.1669
aF0.1628
aF0.1693
aF0.1633
aF0.1634
aF0.1501
aF0.1595
aF0.1737
aF0.2024
aF0.16
aF0.157
aF0.1576
aF0.1664
aF0.1907
aF0.151
aF0.1547
aF0.153
aF0.1652
aF0.1858
aF0.1571
aF0.1609
aF0.1576
aF0.1621
aF0.1805
aF0.1575
aF0.1551
aF0.1528
aF0.1671
aF0.1779
aF0.1623
aF0.156
aF0.1559
aF0.1694
aF0.1767
aF0.1462
aF0.1542
aF0.1476
aF0.1604
aF0.1702
aF0.1546
aF0.1488
aF0.15
aF0.1557
aF0.1782
aF0.1513
aF0.1498
aF0.1509
aF0.1583
aF0.1703
aF0.1489
aF0.1487
aF0.1482
aF0.1589
aF0.1644
aF0.1498
aF0.1476
aF0.1446
aF0.1602
aF0.1558
aF0.1458
aF0.1488
aF0.1424
aF0.1539
aF0.1605
aF0.1492
aF0.1508
aF0.1396
aF0.156
aF0.1529
aF0.1501
aF0.1479
aF0.14
aF0.1517
aF0.1634
aF0.1432
aF0.1452
aF0.1426
aF0.1529
aF0.1485
aF0.1449
aF0.1472
aF0.1367
aF0.1525
aF0.1551
aF0.1434
aF0.1451
aF0.1374
aF0.1493
aF0.1531
aF0.1479
aF0.151
aF0.141
aF0.1513
aF0.1563
aF0.1437
aF0.1465
aF0.1357
aF0.1442
aF0.1393
aF0.1391
aF0.1423
aF0.1454
aF0.1408
aF0.1474
aF0.1369
aF0.1413
aF0.1371
aF0.1433
aF0.1448
aF0.1275
aF0.1394
aF0.1339
aF0.1431
aF0.1512
aF0.1377
aF0.1395
aF0.1385
aF0.1501
aF0.1497
aF0.1339
aF0.1366
aF0.1304
aF0.1495
aF0.1364
aF0.136
aF0.1351
aF0.1361
aF0.1423
aF0.1405
aF0.134
aF0.1396
aF0.1338
aF0.1372
aF0.1373
aF0.1338
aF0.1377
aF0.1347
aF0.1415
aF0.1423
aF0.1344
aF0.1381
aF0.1295
aF0.1449
aF0.1355
aF0.1307
aF0.1352
aF0.1291
aF0.1395
aF0.1408
aF0.1359
aF0.1338
aF0.1286
aF0.1406
aF0.1339
aF0.1314
aF0.1308
aF0.1312
aF0.1361
aF0.142
aF0.1351
aF0.135
aF0.1266
aF0.1366
aF0.1294
aF0.1385
aF0.1355
aF0.1302
aF0.1396
aF0.1356
aF0.1259
aF0.1337
aF0.1228
aF0.1319
aF0.1381
aF0.1297
aF0.1336
aF0.1308
aF0.1326
aF0.1325
aF0.1294
aF0.128
aF0.1297
aF0.1391
aF0.1318
aF0.1257
aF0.1371
aF0.1284
aF0.1344
aF0.1285
aF0.1358
aF0.1302
aF0.125
aF0.1276
aF0.127
aF0.1363
aF0.1324
aF0.1268
aF0.1347
aF0.1226
aF0.1244
aF0.1247
aF0.1266
aF0.1337
aF0.1316
aF0.1256
aF0.1253
aF0.1233
aF0.1299
aF0.1293
aF0.1284
aF0.1262
aF0.1201
aF0.1307
aF0.1311
aF0.1248
aF0.1309
aF0.1211
aF0.1291
aF0.1207
aF0.1218
aF0.1184
aF0.1274
aF0.1286
aF0.1321
aF0.1208
aF0.1266
aF0.126
aF0.1305
aF0.1295
aF0.1265
aF0.1342
aF0.1273
aF0.1271
aF0.1207
aF0.1247
aF0.1236
aF0.1257
aF0.124
aF0.1209
aF0.1172
aF0.1194
aF0.125
aF0.1251
aF0.1215
aF0.1237
aF0.1227
aF0.1192
aF0.1224
aF0.1199
aF0.1099
aF0.1257
aF0.1227
aF0.1267
aF0.1192
aF0.1201
aF0.1233
aF0.1224
aF0.1256
aF0.1235
aF0.1221
aF0.1238
aF0.1197
aF0.1211
aF0.1162
aF0.1365
aF0.1247
aF0.115
aF0.1246
aF0.1282
aF0.1216
aF0.1214
aF0.1186
aF0.1162
aF0.1176
aF0.1186
aF0.1222
aF0.1122
aF0.1197
aF0.1211
aF0.1174
aF0.1226
aF0.1179
aF0.1242
aF0.1161
aF0.1184
aF0.1295
aF0.1169
aF0.1252
aF0.1197
aF0.1199
aF0.1221
aF0.11
aF0.1183
aF0.1202
aF0.1106
aF0.1203
aF0.1208
aF0.1237
aF0.1141
aF0.1142
aF0.1299
aF0.1155
aF0.1232
aF0.1137
aF0.1205
aF0.1231
aF0.1176
aF0.122
aF0.1191
aF0.1234
aF0.1205
aF0.1162
aF0.1222
aF0.1192
aF0.1204
aF0.1164
aF0.1153
aF0.1228
aF0.1163
aF0.1182
aF0.1116
aF0.1143
aF0.1165
aF0.1227
aF0.119
aF0.1228
aF0.132
aF0.1257
aF0.113
aF0.1171
aF0.1215
aF0.1147
aF0.1211
aF0.1127
aF0.1252
aF0.0968
aF0.0902
aF0.0935
aF0.0835
aF0.0884
aF0.09
aF0.0838
aF0.0877
aF0.0807
aF0.0834
aF0.0838
aF0.0782
aF0.0841
aF0.0754
aF0.0831
aF0.0816
aF0.0796
aF0.0819
aF0.0762
aF0.0769
aF0.0844
aF0.076
aF0.0752
aF0.0704
aF0.0794
aF0.0801
aF0.0697
aF0.077
aF0.0732
aF0.0732
aF0.0747
aF0.073
aF0.0804
aF0.0719
aF0.0777
aF0.0746
aF0.0698
aF0.0753
aF0.073
aF0.0737
aF0.0803
aF0.0704
aF0.0809
aF0.0775
aF0.0746
aF0.0746
aF0.0702
aF0.0774
aF0.0719
aF0.0705
aF0.0763
aF0.072
aF0.0709
aF0.072
aF0.072
aF0.0718
aF0.0693
aF0.0715
aF0.0656
aF0.0712
aF0.0675
aF0.0667
aF0.0727
aF0.066
aF0.0761
aF0.0695
aF0.0657
aF0.0739
aF0.0668
aF0.0687
aF0.0727
aF0.0667
aF0.0722
aF0.0648
aF0.0679
aF0.0688
aF0.0648
aF0.073
aF0.0669
aF0.069
aF0.0673
aF0.0643
aF0.0724
aF0.0655
aF0.0707
aF0.0721
aF0.0645
aF0.0685
aF0.0654
aF0.0674
aF0.0676
aF0.0632
aF0.0703
aF0.0597
aF0.0628
aF0.0669
aF0.0642
aF0.0682
aF0.0662
a.