(lp0
F0.8901
aF0.814
aF0.7652
aF0.7141
aF0.6841
aF0.6442
aF0.6044
aF0.5805
aF0.5464
aF0.5179
aF0.5061
aF0.4794
aF0.4538
aF0.4335
aF0.4247
aF0.407
aF0.4007
aF0.407
aF0.3794
aF0.3831
aF0.3671
aF0.3692
aF0.3456
aF0.3619
aF0.3404
aF0.333
aF0.3199
aF0.3368
aF0.3084
aF0.3129
aF0.2909
aF0.2997
aF0.3052
aF0.2932
aF0.2889
aF0.2976
aF0.2742
aF0.274
aF0.2808
aF0.2655
aF0.2876
aF0.2728
aF0.2624
aF0.2678
aF0.262
aF0.2579
aF0.2609
aF0.2488
aF0.2544
aF0.2497
aF0.2549
aF0.2447
aF0.2437
aF0.2416
aF0.2325
aF0.244
aF0.2363
aF0.2344
aF0.2344
aF0.2283
aF0.2259
aF0.2288
aF0.2264
aF0.2251
aF0.2177
aF0.2178
aF0.2149
aF0.2169
aF0.2181
aF0.217
aF0.2225
aF0.2076
aF0.212
aF0.213
aF0.2107
aF0.209
aF0.2094
aF0.2076
aF0.2053
aF0.2093
aF0.2038
aF0.1924
aF0.2473
aF0.2073
aF0.203
aF0.1837
aF0.238
aF0.1927
aF0.2072
aF0.1912
aF0.2284
aF0.2014
aF0.1913
aF0.1951
aF0.2248
aF0.1952
aF0.1895
aF0.1888
aF0.2215
aF0.1871
aF0.1966
aF0.1904
aF0.2054
aF0.1866
aF0.196
aF0.178
aF0.2068
aF0.1848
aF0.1841
aF0.1774
aF0.2073
aF0.1744
aF0.1844
aF0.1772
aF0.1995
aF0.1836
aF0.1818
aF0.1737
aF0.1943
aF0.1743
aF0.1727
aF0.1783
aF0.1901
aF0.1702
aF0.173
aF0.1723
aF0.1917
aF0.1712
aF0.1791
aF0.1658
aF0.1862
aF0.1708
aF0.1746
aF0.1679
aF0.1893
aF0.1695
aF0.1704
aF0.1599
aF0.1769
aF0.1676
aF0.1678
aF0.1664
aF0.1809
aF0.1613
aF0.1703
aF0.1594
aF0.1724
aF0.1711
aF0.1703
aF0.1671
aF0.1687
aF0.1585
aF0.1613
aF0.1563
aF0.1707
aF0.1601
aF0.1597
aF0.1664
aF0.1715
aF0.1606
aF0.1569
aF0.155
aF0.1704
aF0.146
aF0.1568
aF0.1496
aF0.1706
aF0.1528
aF0.1528
aF0.1513
aF0.1707
aF0.1557
aF0.1456
aF0.1604
aF0.1972
aF0.1623
aF0.1523
aF0.1471
aF0.1569
aF0.1945
aF0.1577
aF0.1516
aF0.1446
aF0.1602
aF0.1821
aF0.1491
aF0.1468
aF0.1518
aF0.1607
aF0.1899
aF0.1482
aF0.1513
aF0.1494
aF0.1566
aF0.1786
aF0.144
aF0.1495
aF0.1449
aF0.1553
aF0.1687
aF0.1449
aF0.1465
aF0.1385
aF0.1585
aF0.1666
aF0.148
aF0.1422
aF0.1472
aF0.1533
aF0.1633
aF0.1539
aF0.1514
aF0.1451
aF0.1493
aF0.1612
aF0.1499
aF0.1434
aF0.139
aF0.1499
aF0.1604
aF0.1398
aF0.1472
aF0.1403
aF0.1497
aF0.155
aF0.1483
aF0.1398
aF0.1384
aF0.1522
aF0.1532
aF0.138
aF0.1418
aF0.138
aF0.1443
aF0.154
aF0.1403
aF0.1456
aF0.1497
aF0.1482
aF0.155
aF0.1512
aF0.138
aF0.1362
aF0.1501
aF0.1426
aF0.1352
aF0.1343
aF0.1386
aF0.1454
aF0.1441
aF0.1361
aF0.139
aF0.1346
aF0.1449
aF0.1502
aF0.1342
aF0.1431
aF0.1348
aF0.1389
aF0.1438
aF0.1376
aF0.1473
aF0.1368
aF0.1419
aF0.1494
aF0.1384
aF0.1359
aF0.1315
aF0.1432
aF0.1419
aF0.1323
aF0.1352
aF0.1412
aF0.1398
aF0.1432
aF0.1341
aF0.1291
aF0.1232
aF0.1406
aF0.1356
aF0.1395
aF0.1394
aF0.129
aF0.1321
aF0.1345
aF0.13
aF0.1375
aF0.1315
aF0.1359
aF0.1418
aF0.1357
aF0.1351
aF0.1358
aF0.1423
aF0.1371
aF0.1276
aF0.1362
aF0.1228
aF0.1301
aF0.1403
aF0.1347
aF0.1366
aF0.1288
aF0.133
aF0.1367
aF0.1306
aF0.1395
aF0.1291
aF0.1357
aF0.1338
aF0.1289
aF0.1326
aF0.1298
aF0.1336
aF0.1379
aF0.1308
aF0.1334
aF0.1289
aF0.13
aF0.1312
aF0.1227
aF0.1255
aF0.1318
aF0.1312
aF0.1309
aF0.128
aF0.1299
aF0.1214
aF0.1352
aF0.1321
aF0.1286
aF0.1316
aF0.1204
aF0.1291
aF0.133
aF0.122
aF0.128
aF0.1279
aF0.1298
aF0.1312
aF0.13
aF0.1228
aF0.1247
aF0.1344
aF0.1342
aF0.1212
aF0.1295
aF0.1286
aF0.1281
aF0.1297
aF0.1213
aF0.1321
aF0.1282
aF0.1277
aF0.1289
aF0.1233
aF0.1271
aF0.1282
aF0.1337
aF0.1293
aF0.1262
aF0.1231
aF0.1194
aF0.1346
aF0.1282
aF0.1222
aF0.1256
aF0.1186
aF0.1252
aF0.1279
aF0.1271
aF0.1253
aF0.1204
aF0.1221
aF0.1228
aF0.1252
aF0.1228
aF0.1156
aF0.1215
aF0.1208
aF0.1219
aF0.1219
aF0.1209
aF0.1227
aF0.1231
aF0.1234
aF0.1206
aF0.122
aF0.1235
aF0.1263
aF0.1222
aF0.1285
aF0.1191
aF0.1268
aF0.123
aF0.1246
aF0.1216
aF0.1221
aF0.1214
aF0.1274
aF0.1225
aF0.1251
aF0.1212
aF0.1258
aF0.1223
aF0.1161
aF0.1204
aF0.1137
aF0.1273
aF0.1269
aF0.1195
aF0.1211
aF0.1131
aF0.1226
aF0.1208
aF0.1256
aF0.1266
aF0.1191
aF0.1236
aF0.123
aF0.1145
aF0.1161
aF0.1138
aF0.1205
aF0.1156
aF0.1235
aF0.1238
aF0.1191
aF0.119
aF0.1241
aF0.1137
aF0.1177
aF0.1188
aF0.123
aF0.1236
aF0.1177
aF0.1205
aF0.1167
aF0.1296
aF0.1207
aF0.1219
aF0.1247
aF0.1111
aF0.1257
aF0.1106
aF0.1193
aF0.1223
aF0.1203
aF0.1225
aF0.1176
aF0.1143
aF0.1187
aF0.1223
aF0.1227
aF0.1149
aF0.1229
aF0.1257
aF0.113
aF0.1232
aF0.1215
aF0.1194
aF0.1204
aF0.1185
aF0.1207
aF0.1151
aF0.1109
aF0.115
aF0.114
aF0.1181
aF0.1151
aF0.1206
aF0.1201
aF0.1083
aF0.1186
aF0.1231
aF0.1169
aF0.1135
aF0.116
aF0.1218
aF0.119
aF0.1142
aF0.118
aF0.1126
aF0.1228
aF0.1142
aF0.1154
aF0.1263
aF0.1097
aF0.1176
aF0.114
aF0.1103
aF0.1203
aF0.1165
aF0.129
aF0.119
aF0.1182
aF0.12
aF0.1122
aF0.1173
aF0.1127
aF0.1287
aF0.1021
aF0.0937
aF0.0901
aF0.0836
aF0.0893
aF0.0922
aF0.0832
aF0.0841
aF0.0834
aF0.0841
aF0.0859
aF0.078
aF0.0832
aF0.0807
aF0.0788
aF0.0824
aF0.0767
aF0.0833
aF0.0717
aF0.081
aF0.0797
aF0.0728
aF0.0791
aF0.0755
aF0.081
aF0.0791
aF0.0712
aF0.0815
aF0.0687
aF0.0751
aF0.0747
aF0.0714
aF0.0792
aF0.0698
aF0.074
aF0.0787
aF0.0723
aF0.0735
aF0.071
aF0.0763
aF0.0777
aF0.07
aF0.0767
aF0.0759
aF0.0734
aF0.0755
aF0.0709
aF0.0771
aF0.0671
aF0.0722
aF0.071
aF0.0696
aF0.0741
aF0.0704
aF0.0725
aF0.0715
aF0.0679
aF0.071
aF0.0707
aF0.0712
aF0.0721
aF0.0676
aF0.0708
aF0.0656
aF0.0692
aF0.0724
aF0.0669
aF0.0697
aF0.0692
aF0.066
aF0.0714
aF0.0647
aF0.0681
aF0.0661
aF0.0698
aF0.0744
aF0.0658
aF0.069
aF0.0674
aF0.0671
aF0.0684
aF0.0633
aF0.0685
aF0.0691
aF0.0648
aF0.0679
aF0.0669
aF0.0719
aF0.0641
aF0.0672
aF0.0682
aF0.063
aF0.0666
aF0.0642
aF0.0671
aF0.068
aF0.0596
aF0.0659
aF0.0646
aF0.0665
aF0.0678
aF0.0619
aF0.0707
aF0.0634
aF0.065
aF0.065
aF0.0642
aF0.0644
aF0.066
a.