(lp0
F0.8072
aF0.7353
aF0.6826
aF0.656
aF0.6227
aF0.6043
aF0.6008
aF0.5861
aF0.5713
aF0.5452
aF0.5422
aF0.5241
aF0.5068
aF0.5022
aF0.4887
aF0.4917
aF0.4866
aF0.494
aF0.4795
aF0.4853
aF0.4607
aF0.4695
aF0.451
aF0.466
aF0.4476
aF0.4497
aF0.4351
aF0.4461
aF0.4291
aF0.4442
aF0.4196
aF0.4284
aF0.4297
aF0.4177
aF0.4179
aF0.4158
aF0.3941
aF0.4027
aF0.4032
aF0.397
aF0.4043
aF0.4035
aF0.3894
aF0.4045
aF0.3926
aF0.3864
aF0.3903
aF0.3874
aF0.3767
aF0.3831
aF0.3963
aF0.3758
aF0.3789
aF0.3689
aF0.3693
aF0.3715
aF0.3643
aF0.3669
aF0.3764
aF0.3659
aF0.351
aF0.3702
aF0.3713
aF0.3574
aF0.3593
aF0.3521
aF0.3519
aF0.3573
aF0.3535
aF0.343
aF0.3521
aF0.3579
aF0.3522
aF0.3571
aF0.3389
aF0.3345
aF0.3374
aF0.3586
aF0.3369
aF0.3575
aF0.3398
aF0.3466
aF0.3377
aF0.3555
aF0.3374
aF0.3428
aF0.3305
aF0.3496
aF0.3249
aF0.3294
aF0.3305
aF0.3494
aF0.3264
aF0.3432
aF0.3205
aF0.3386
aF0.3262
aF0.3284
aF0.3234
aF0.3398
aF0.331
aF0.3267
aF0.3262
aF0.3317
aF0.321
aF0.3205
aF0.3172
aF0.3299
aF0.306
aF0.3167
aF0.3255
aF0.327
aF0.3203
aF0.3155
aF0.3111
aF0.3208
aF0.3108
aF0.3182
aF0.315
aF0.3137
aF0.3141
aF0.3159
aF0.3076
aF0.3199
aF0.3055
aF0.304
aF0.3036
aF0.3214
aF0.3073
aF0.3133
aF0.2997
aF0.3209
aF0.3062
aF0.3058
aF0.301
aF0.311
aF0.3031
aF0.306
aF0.2931
aF0.3105
aF0.305
aF0.3084
aF0.2956
aF0.3094
aF0.3047
aF0.2992
aF0.2953
aF0.311
aF0.2945
aF0.3007
aF0.2878
aF0.3025
aF0.2981
aF0.2882
aF0.2975
aF0.3137
aF0.2949
aF0.2984
aF0.2878
aF0.3031
aF0.2911
aF0.2912
aF0.2895
aF0.3012
aF0.2896
aF0.2941
aF0.2903
aF0.2904
aF0.2989
aF0.312
aF0.3002
aF0.2906
aF0.2849
aF0.297
aF0.31
aF0.2847
aF0.2893
aF0.2868
aF0.3057
aF0.2961
aF0.2844
aF0.2808
aF0.2847
aF0.3011
aF0.299
aF0.2883
aF0.2844
aF0.283
aF0.2923
aF0.2904
aF0.2823
aF0.2803
aF0.2832
aF0.2893
aF0.2932
aF0.2701
aF0.2799
aF0.2809
aF0.291
aF0.2863
aF0.2789
aF0.2764
aF0.2715
aF0.2866
aF0.2906
aF0.2713
aF0.2864
aF0.2798
aF0.2841
aF0.288
aF0.2793
aF0.2798
aF0.2668
aF0.2848
aF0.284
aF0.2685
aF0.2751
aF0.274
aF0.2791
aF0.2825
aF0.2727
aF0.2748
aF0.2704
aF0.2775
aF0.2819
aF0.2709
aF0.2754
aF0.2691
aF0.2831
aF0.2802
aF0.2699
aF0.269
aF0.2679
aF0.2764
aF0.2815
aF0.2733
aF0.2722
aF0.2547
aF0.2852
aF0.2801
aF0.2738
aF0.2754
aF0.2599
aF0.2771
aF0.2757
aF0.2764
aF0.2735
aF0.2718
aF0.2786
aF0.2746
aF0.2675
aF0.273
aF0.2638
aF0.2819
aF0.2694
aF0.2576
aF0.2702
aF0.257
aF0.2753
aF0.2639
aF0.2638
aF0.272
aF0.258
aF0.2762
aF0.2674
aF0.2644
aF0.2691
aF0.2639
aF0.276
aF0.2696
aF0.2584
aF0.2648
aF0.2535
aF0.2672
aF0.263
aF0.2662
aF0.2622
aF0.2587
aF0.2718
aF0.2597
aF0.2611
aF0.2665
aF0.254
aF0.2686
aF0.2644
aF0.2649
aF0.2668
aF0.2541
aF0.2642
aF0.2665
aF0.2568
aF0.2642
aF0.2552
aF0.2705
aF0.2592
aF0.2589
aF0.2599
aF0.2547
aF0.2646
aF0.257
aF0.2597
aF0.2582
aF0.2523
aF0.2644
aF0.2636
aF0.2568
aF0.2614
aF0.2533
aF0.2681
aF0.2647
aF0.2561
aF0.2606
aF0.2469
aF0.2626
aF0.2665
aF0.2562
aF0.2586
aF0.2542
aF0.2648
aF0.2561
aF0.2546
aF0.2606
aF0.2493
aF0.255
aF0.2601
aF0.2591
aF0.2574
aF0.253
aF0.2595
aF0.2545
aF0.2578
aF0.2502
aF0.2492
aF0.2622
aF0.2479
aF0.2537
aF0.2577
aF0.2545
aF0.2556
aF0.2571
aF0.251
aF0.25
aF0.2538
aF0.2558
aF0.2528
aF0.2517
aF0.2485
aF0.2425
aF0.2596
aF0.2489
aF0.2504
aF0.2501
aF0.2462
aF0.2584
aF0.2497
aF0.2533
aF0.2512
aF0.2474
aF0.2575
aF0.2561
aF0.2454
aF0.2512
aF0.2462
aF0.262
aF0.2531
aF0.249
aF0.2579
aF0.2515
aF0.2548
aF0.2493
aF0.2487
aF0.2485
aF0.2462
aF0.2543
aF0.2484
aF0.2533
aF0.2541
aF0.2425
aF0.2568
aF0.2406
aF0.236
aF0.2514
aF0.2418
aF0.2527
aF0.2473
aF0.2389
aF0.253
aF0.2432
aF0.2511
aF0.2426
aF0.2507
aF0.2448
aF0.2365
aF0.2528
aF0.2508
aF0.2357
aF0.2504
aF0.2461
aF0.2556
aF0.2485
aF0.2439
aF0.2501
aF0.2325
aF0.2525
aF0.2511
aF0.2466
aF0.2486
aF0.2349
aF0.25
aF0.2481
aF0.2455
aF0.2461
aF0.2446
aF0.2485
aF0.2415
aF0.2444
aF0.252
aF0.2373
aF0.2521
aF0.2435
aF0.2463
aF0.242
aF0.2343
aF0.2507
aF0.2421
aF0.2439
aF0.2486
aF0.2374
aF0.2476
aF0.2438
aF0.235
aF0.2439
aF0.2335
aF0.2453
aF0.2388
aF0.2456
aF0.2469
aF0.2387
aF0.2472
aF0.2481
aF0.241
aF0.2468
aF0.2327
aF0.2491
aF0.2432
aF0.2483
aF0.2377
aF0.2295
aF0.251
aF0.2425
aF0.2431
aF0.2451
aF0.2313
aF0.2553
aF0.2415
aF0.2375
aF0.2342
aF0.2371
aF0.2431
aF0.2416
aF0.2426
aF0.2477
aF0.2314
aF0.2446
aF0.2429
aF0.2465
aF0.2412
aF0.2418
aF0.2462
aF0.2359
aF0.2372
aF0.2392
aF0.2285
aF0.2496
aF0.2391
aF0.2368
aF0.2391
aF0.23
aF0.2473
aF0.2341
aF0.2362
aF0.2379
aF0.2327
aF0.2461
aF0.2371
aF0.2324
aF0.2414
aF0.227
aF0.2402
aF0.2365
aF0.2329
aF0.2405
aF0.2236
aF0.2434
aF0.2314
aF0.2299
aF0.2354
aF0.2251
aF0.2421
aF0.2339
aF0.2394
aF0.2359
aF0.229
aF0.2462
aF0.2383
aF0.2293
aF0.2342
aF0.2241
aF0.2449
aF0.2385
aF0.2315
aF0.2369
aF0.2305
aF0.243
aF0.2409
aF0.2246
aF0.2394
aF0.2214
aF0.2374
aF0.2356
aF0.2366
aF0.2476
aF0.2303
aF0.2381
aF0.2318
aF0.2287
aF0.2404
aF0.2333
aF0.2423
aF0.2296
aF0.2301
aF0.2345
aF0.2322
aF0.2355
aF0.224
aF0.2316
aF0.2346
aF0.2282
aF0.2375
aF0.2345
aF0.2311
aF0.2328
aF0.2278
aF0.2374
aF0.2327
aF0.227
aF0.2354
aF0.2333
aF0.2326
aF0.2335
aF0.2283
aF0.2409
aF0.2274
aF0.2467
aF0.2293
aF0.2296
aF0.2403
aF0.2295
aF0.234
aF0.23
aF0.2295
aF0.2368
aF0.223
aF0.2352
aF0.232
aF0.2318
aF0.2276
aF0.2265
aF0.2364
aF0.2306
aF0.229
aF0.2311
aF0.2272
aF0.2295
aF0.2246
aF0.2327
aF0.2362
aF0.218
aF0.2351
aF0.2281
aF0.2285
aF0.232
aF0.2216
aF0.2301
aF0.2352
aF0.2241
aF0.2314
aF0.2204
aF0.2386
aF0.2216
aF0.2247
aF0.2309
aF0.225
aF0.2394
aF0.233
aF0.2297
aF0.2289
aF0.2212
aF0.2324
aF0.229
aF0.2262
aF0.2283
aF0.2213
aF0.2406
aF0.2275
aF0.2248
aF0.2251
aF0.2269
aF0.2285
aF0.2323
aF0.232
aF0.2308
aF0.2261
aF0.2311
aF0.2244
aF0.2219
aF0.2287
aF0.2225
aF0.2326
aF0.227
aF0.2272
aF0.2321
aF0.216
aF0.2265
aF0.2249
aF0.2233
aF0.2295
aF0.2223
aF0.2316
aF0.2164
aF0.2346
aF0.2273
aF0.2187
aF0.2339
aF0.2263
aF0.2335
aF0.2306
aF0.222
aF0.2278
aF0.2208
aF0.2279
aF0.2331
aF0.2204
aF0.2315
aF0.2235
aF0.223
aF0.2274
aF0.2182
aF0.2333
aF0.2269
aF0.2278
aF0.2204
aF0.221
aF0.2425
aF0.22
aF0.2177
aF0.2318
aF0.219
aF0.2319
aF0.2233
aF0.2293
aF0.2228
aF0.2259
aF0.2293
aF0.2282
aF0.215
aF0.2299
aF0.2168
aF0.2299
aF0.2213
aF0.2203
aF0.2266
aF0.2181
aF0.2295
aF0.2303
aF0.2274
aF0.2215
aF0.2178
aF0.2326
aF0.2257
aF0.2221
aF0.226
aF0.2225
aF0.2261
aF0.2248
aF0.2203
aF0.227
aF0.2138
aF0.2235
aF0.2222
aF0.2148
aF0.2285
aF0.2168
aF0.2256
aF0.216
aF0.2205
aF0.2188
aF0.216
aF0.2287
aF0.2242
aF0.2237
aF0.2293
aF0.223
aF0.2323
aF0.2256
aF0.2188
aF0.2258
aF0.2195
aF0.2248
aF0.2204
aF0.2243
aF0.2204
aF0.2168
aF0.2299
aF0.221
aF0.2213
aF0.2191
aF0.2224
aF0.226
aF0.2128
aF0.2178
aF0.227
aF0.2256
aF0.2227
aF0.218
aF0.2189
aF0.225
aF0.2132
aF0.22
aF0.2153
aF0.222
aF0.2282
aF0.2228
aF0.229
aF0.2249
aF0.2155
aF0.2233
aF0.2159
aF0.2283
aF0.2202
aF0.2201
aF0.2243
aF0.2096
aF0.2229
aF0.2234
aF0.2178
aF0.2211
aF0.2131
aF0.2274
aF0.2274
aF0.2228
aF0.224
aF0.217
aF0.2228
aF0.2186
aF0.2208
aF0.2159
aF0.2154
aF0.2321
aF0.2187
aF0.2173
aF0.2265
aF0.2135
aF0.2263
aF0.2099
aF0.2171
aF0.2253
aF0.2161
aF0.2256
aF0.2117
aF0.2222
aF0.2273
aF0.2114
aF0.2325
aF0.2209
aF0.2119
aF0.2181
aF0.2161
aF0.227
aF0.2198
aF0.2225
aF0.2257
aF0.2102
aF0.2291
aF0.219
aF0.2229
aF0.2217
aF0.2126
aF0.23
aF0.2176
aF0.2169
aF0.2211
aF0.2119
aF0.2263
aF0.2221
aF0.2153
aF0.2148
aF0.2161
aF0.2225
aF0.2209
aF0.2177
aF0.2268
aF0.2217
aF0.2262
aF0.2178
aF0.2148
aF0.2231
aF0.2087
aF0.2258
aF0.2208
aF0.2192
aF0.2241
aF0.2116
aF0.2248
aF0.2228
aF0.2165
aF0.2236
aF0.22
aF0.2226
aF0.2116
aF0.2246
aF0.2207
aF0.2102
aF0.223
aF0.2136
aF0.2201
aF0.2112
aF0.2112
aF0.221
aF0.2165
aF0.2154
aF0.2263
aF0.2094
aF0.2153
aF0.216
aF0.2138
aF0.2265
aF0.2079
aF0.2266
aF0.2146
aF0.223
aF0.2136
aF0.2089
aF0.2183
aF0.2125
aF0.2135
aF0.215
aF0.22
aF0.2289
aF0.2101
aF0.2163
aF0.2139
aF0.2207
aF0.2224
aF0.2108
aF0.2188
aF0.218
aF0.2115
aF0.2232
aF0.216
aF0.2107
aF0.2138
aF0.2143
aF0.2234
aF0.2108
aF0.2108
aF0.2215
aF0.2112
aF0.2175
aF0.2044
aF0.2091
aF0.2108
aF0.2083
aF0.2171
aF0.2114
aF0.2094
aF0.2238
aF0.2156
aF0.2184
aF0.2227
aF0.2126
aF0.2186
aF0.2103
aF0.22
aF0.2164
aF0.2129
aF0.218
aF0.202
aF0.2185
aF0.2127
aF0.2174
aF0.2205
aF0.2093
aF0.2246
aF0.2208
aF0.2115
aF0.2109
aF0.2098
aF0.2196
aF0.2164
aF0.2174
aF0.2155
aF0.2133
aF0.2152
aF0.2112
aF0.2175
aF0.2109
aF0.2085
aF0.2193
aF0.2113
aF0.2108
aF0.2127
aF0.2094
aF0.2158
aF0.2115
aF0.2172
aF0.2176
aF0.2086
aF0.221
aF0.2077
aF0.2178
aF0.2116
aF0.212
aF0.2134
aF0.218
aF0.2085
aF0.2102
aF0.2102
aF0.2216
aF0.2049
aF0.2068
aF0.2111
aF0.2113
aF0.213
aF0.2124
aF0.2253
aF0.223
aF0.2127
aF0.2126
aF0.2156
aF0.2124
aF0.2098
aF0.2102
aF0.2189
aF0.2125
aF0.2061
aF0.2189
aF0.217
aF0.2189
aF0.2113
aF0.2171
aF0.2148
aF0.2082
aF0.2227
aF0.2053
aF0.208
aF0.213
aF0.2086
aF0.221
aF0.2183
aF0.2126
aF0.2134
aF0.2058
aF0.2221
aF0.2067
aF0.2155
aF0.2155
aF0.207
aF0.2173
aF0.2057
aF0.208
aF0.2182
aF0.2138
aF0.2216
aF0.2084
aF0.2121
aF0.2164
aF0.2045
aF0.2159
aF0.2092
aF0.2118
aF0.2167
aF0.2054
aF0.2167
aF0.21
aF0.2116
aF0.2125
aF0.2079
aF0.2102
aF0.2063
aF0.2138
aF0.2181
aF0.2122
aF0.2114
aF0.208
aF0.2094
aF0.2149
aF0.2068
aF0.2128
aF0.2052
aF0.2149
aF0.2146
aF0.209
aF0.215
aF0.2098
aF0.2014
aF0.2138
aF0.2009
aF0.2235
aF0.2081
aF0.2108
aF0.215
aF0.2103
aF0.2185
aF0.2079
aF0.214
aF0.2099
aF0.2007
aF0.2141
aF0.2122
aF0.213
aF0.2162
aF0.2131
aF0.2157
aF0.2095
aF0.2037
aF0.2081
aF0.2059
aF0.2115
aF0.21
aF0.2107
aF0.2065
aF0.2087
aF0.2101
aF0.2148
aF0.2099
aF0.2126
aF0.2078
aF0.215
aF0.2138
aF0.2068
aF0.211
aF0.2039
aF0.2198
aF0.2101
aF0.2126
aF0.2069
aF0.2055
aF0.2131
aF0.2078
aF0.2039
aF0.2084
aF0.2111
aF0.2139
aF0.2111
aF0.2092
aF0.2124
aF0.2032
aF0.2139
aF0.2092
aF0.2107
aF0.2109
aF0.2052
aF0.2157
aF0.2155
aF0.2149
aF0.215
aF0.2029
aF0.2203
aF0.2084
aF0.2111
aF0.2082
aF0.2081
aF0.2143
aF0.203
aF0.2133
aF0.2101
aF0.2101
aF0.2099
aF0.2063
aF0.2065
aF0.2093
aF0.2067
aF0.2097
aF0.2012
aF0.2052
aF0.2122
aF0.1998
aF0.2124
aF0.2117
aF0.2099
aF0.2115
aF0.2114
aF0.214
aF0.2056
aF0.2125
aF0.2096
aF0.2033
aF0.2085
aF0.2028
aF0.2049
aF0.2112
aF0.212
aF0.215
aF0.208
aF0.2053
aF0.2148
aF0.1994
aF0.213
aF0.2061
aF0.2062
aF0.2112
aF0.2001
aF0.2078
aF0.2057
aF0.2132
aF0.2158
aF0.1998
aF0.2074
aF0.2182
aF0.2007
aF0.2164
aF0.1998
aF0.2157
aF0.2077
aF0.206
aF0.2081
aF0.2029
aF0.2137
aF0.208
aF0.2066
aF0.2095
aF0.207
aF0.2129
aF0.204
aF0.2056
aF0.2108
aF0.2084
aF0.2102
aF0.209
aF0.2028
aF0.2128
aF0.1987
aF0.216
aF0.2041
aF0.2075
aF0.2041
aF0.1977
aF0.2137
aF0.2017
aF0.2013
aF0.2126
aF0.208
aF0.2064
aF0.212
aF0.1973
aF0.21
aF0.2108
aF0.2129
aF0.2091
aF0.1962
aF0.2074
aF0.1995
aF0.2107
aF0.203
aF0.2062
aF0.2186
aF0.2062
aF0.2203
aF0.203
aF0.2154
aF0.2127
aF0.2058
aF0.2105
aF0.21
aF0.2051
aF0.209
aF0.2072
aF0.2109
aF0.2069
aF0.2081
aF0.2082
aF0.2078
aF0.2136
aF0.2034
aF0.2092
aF0.2126
aF0.2046
aF0.2124
aF0.2093
aF0.2052
aF0.2081
aF0.2008
aF0.2116
aF0.2069
aF0.2082
aF0.2084
aF0.1993
aF0.2118
aF0.204
aF0.212
aF0.2095
aF0.2002
aF0.2075
aF0.2096
aF0.1993
aF0.2065
aF0.2006
aF0.2013
aF0.203
aF0.2036
aF0.2187
aF0.1991
aF0.2114
aF0.1997
aF0.2011
aF0.2031
aF0.2021
aF0.2112
aF0.2054
aF0.2088
aF0.2095
aF0.1958
aF0.2027
aF0.2137
aF0.2027
aF0.2083
aF0.1992
aF0.2048
aF0.2011
aF0.2042
aF0.206
aF0.2011
aF0.2092
aF0.1968
aF0.2035
aF0.2041
aF0.2089
aF0.2125
aF0.2018
aF0.1997
aF0.2068
aF0.1995
aF0.2121
aF0.2015
aF0.206
aF0.2085
aF0.2047
aF0.2088
aF0.202
aF0.2072
aF0.2024
aF0.1957
aF0.2079
aF0.198
aF0.2061
aF0.2054
aF0.1989
aF0.2106
aF0.2044
aF0.198
aF0.2046
aF0.201
aF0.2102
aF0.2045
aF0.204
aF0.209
aF0.1992
aF0.2177
aF0.2057
aF0.2109
aF0.2079
aF0.2008
aF0.2157
aF0.2038
aF0.1967
aF0.2089
aF0.2006
aF0.2089
aF0.2029
aF0.2172
aF0.205
aF0.2012
aF0.2106
aF0.2044
aF0.2043
aF0.2131
aF0.1978
aF0.2035
aF0.2058
aF0.2027
aF0.2019
aF0.1915
aF0.2084
aF0.202
aF0.1993
aF0.2032
aF0.2057
aF0.2148
aF0.1956
aF0.1969
aF0.2034
aF0.199
aF0.2086
aF0.2068
aF0.2005
aF0.2089
aF0.194
aF0.2013
aF0.2014
aF0.1955
aF0.205
aF0.1961
aF0.208
aF0.2065
aF0.1941
aF0.2039
aF0.198
aF0.215
aF0.2036
aF0.204
aF0.2045
aF0.195
aF0.2063
aF0.1955
aF0.2048
aF0.2073
aF0.1968
aF0.2047
aF0.2011
aF0.2013
aF0.2093
aF0.1974
aF0.2072
aF0.2
aF0.2047
aF0.1991
aF0.2022
aF0.2066
aF0.1968
aF0.2004
aF0.2111
aF0.2017
aF0.206
aF0.2004
aF0.2028
aF0.2028
aF0.2034
aF0.2043
aF0.2001
aF0.2069
aF0.2046
aF0.1978
aF0.2094
aF0.2057
aF0.2096
aF0.2049
aF0.1976
aF0.2041
aF0.2004
aF0.2044
aF0.2046
aF0.2019
aF0.2056
aF0.1953
aF0.1969
aF0.2044
aF0.2019
aF0.202
aF0.1999
aF0.1935
aF0.2045
aF0.1969
aF0.209
aF0.2056
aF0.1995
aF0.2031
aF0.1913
aF0.2053
aF0.2055
aF0.2085
aF0.2087
aF0.1976
aF0.2079
aF0.2028
aF0.2
aF0.2055
aF0.2024
aF0.2039
aF0.2025
aF0.2048
aF0.2045
aF0.197
aF0.2048
aF0.2031
aF0.2013
aF0.2069
aF0.1999
aF0.2067
aF0.2005
aF0.1978
aF0.2024
aF0.2003
aF0.2093
aF0.205
aF0.2034
aF0.2021
aF0.1967
aF0.2027
aF0.2022
aF0.2045
aF0.2053
aF0.1969
aF0.2028
aF0.2033
aF0.2006
aF0.2099
aF0.203
aF0.2035
aF0.2014
aF0.2063
aF0.1997
aF0.1931
aF0.2077
aF0.2086
aF0.1989
aF0.2061
aF0.1908
aF0.2071
aF0.1992
aF0.2005
aF0.2032
aF0.1987
aF0.212
aF0.1972
aF0.2044
aF0.2019
aF0.1931
aF0.21
aF0.2026
aF0.1959
aF0.1992
aF0.2008
aF0.2107
aF0.1956
aF0.1981
aF0.208
aF0.1939
aF0.2051
aF0.1969
aF0.1892
aF0.2048
aF0.199
aF0.2041
aF0.1953
aF0.2076
aF0.2026
aF0.2
aF0.2074
aF0.1933
aF0.2015
aF0.2058
aF0.199
aF0.208
aF0.1988
aF0.1977
aF0.2021
aF0.1974
aF0.2093
aF0.204
aF0.2003
aF0.2075
aF0.1963
aF0.2013
aF0.1967
aF0.2005
aF0.2034
aF0.2006
aF0.202
aF0.1992
aF0.204
aF0.2058
aF0.2011
aF0.2074
aF0.2012
aF0.1999
aF0.2048
aF0.1928
aF0.2028
aF0.2068
aF0.1991
aF0.1945
aF0.1981
aF0.1995
aF0.2012
aF0.2036
aF0.2023
aF0.1947
aF0.1991
aF0.1991
aF0.1982
aF0.2009
aF0.2028
aF0.2082
aF0.1991
aF0.2015
aF0.2057
aF0.1923
aF0.2071
aF0.1965
aF0.2004
aF0.2038
aF0.2063
aF0.2077
aF0.1935
aF0.1946
aF0.2051
aF0.1951
aF0.2102
aF0.2
aF0.1942
aF0.2022
aF0.1953
aF0.2062
aF0.1949
aF0.2002
aF0.1965
aF0.1993
aF0.2082
aF0.1967
aF0.1966
aF0.2035
aF0.1958
aF0.2053
aF0.1958
aF0.201
aF0.2088
aF0.1941
aF0.2016
aF0.2034
aF0.1947
aF0.203
aF0.1918
aF0.2
aF0.2032
a.