(lp0
F2.1528353088378904
aF1.906905817604065
aF1.7675360166549683
aF1.7266584419250488
aF1.6567428916931153
aF1.6137847507476806
aF1.5753849594116212
aF1.506567451095581
aF1.4736940055847167
aF1.4668179132461547
aF1.4211032342910768
aF1.4275441352844238
aF1.3628033281326295
aF1.390744694519043
aF1.353163893699646
aF1.3304029451370238
aF1.3169593564987183
aF1.284221473121643
aF1.2901357842445373
aF1.2824552173614503
aF1.2468211256027222
aF1.2617759860992432
aF1.2175191514968873
aF1.237383909225464
aF1.2237149972915649
aF1.2096927452087403
aF1.197420829486847
aF1.178655189704895
aF1.2075130388259887
aF1.1811224952697754
aF1.1780052639007568
aF1.174643416595459
aF1.1291809193611144
aF1.160324693107605
aF1.1239618812561034
aF1.125826226043701
aF1.1277339079856872
aF1.0946562167167664
aF1.1251820393562317
aF1.0914008083343505
aF1.0777729118347168
aF1.0926786525726317
aF1.0599170702934264
aF1.0936198345184327
aF1.0704493505477906
aF1.0611046033859253
aF1.0504587077140808
aF1.0345478262901306
aF1.0698630655288697
aF1.0352411180496215
aF1.0285785808563233
aF1.0381772401809692
aF1.0086296379089355
aF1.0359646544456482
aF1.0311379438400268
aF1.0074877298355103
aF1.0260967950820923
aF0.9933512825012207
aF1.0246838159561158
aF1.0028777158737183
aF0.9814594593048096
aF1.0028706443786621
aF0.9853820504188537
aF0.9981837962150574
aF0.9823934606552124
aF0.9740070545196533
aF0.9828556547164917
aF0.9652160694122315
aF0.9734911918640137
aF0.9595659967422485
aF0.964387018585205
aF0.9630796368598938
aF0.9347886072158813
aF0.9650232059478759
aF0.9516694442749023
aF0.9468539492607116
aF0.9500497817993164
aF0.9203228835105896
aF0.958537486076355
aF0.938044193649292
aF0.9092868942260742
aF0.9520059288024902
aF0.9074976961135864
aF0.9481474127292633
aF0.9039671644210815
aF0.9190133136749268
aF0.9320745334625244
aF0.8879807251930237
aF0.9372180910110474
aF0.9193942277908326
aF0.9020724723815918
aF0.9087068778991699
aF0.8862786478996277
aF0.9211988065719604
aF0.9013586868286133
aF0.8952856466293335
aF0.9128214408874512
aF0.8696186252593994
aF0.9273025730609894
aF0.8681274147033692
aF0.8720120141029358
aF0.8879430653572082
aF0.8636999642372132
aF0.8889859814167023
aF0.8753559902191163
aF0.8644272919654846
aF0.880805409526825
aF0.8614238698959351
aF0.8862421582221985
aF0.8658556125640869
aF0.8653736046791076
aF0.8818582648277282
aF0.842328469991684
aF0.888681786441803
aF0.8536254054069519
aF0.852446060848236
aF0.8632028816223144
aF0.8339957496643067
aF0.8711972923517227
aF0.8519404956817627
aF0.8431668258666992
aF0.8510238265037536
aF0.8288133160114288
aF0.8711954025268555
aF0.8395449935913086
aF0.8312155919075013
aF0.8509978023529052
aF0.8205203038215637
aF0.8651269164085388
aF0.8227507934570313
aF0.819557834815979
aF0.8532827694892884
aF0.8054453478813172
aF0.8427339091300964
aF0.8209957014083862
aF0.8100410838127137
aF0.8239820446968079
aF0.8011595149517059
aF0.8383559722900391
aF0.8179037048339843
aF0.8237253106117248
aF0.813853442287445
aF0.7970745840072632
aF0.8247085062503815
aF0.8130215678215027
aF0.8025312372207641
aF0.8289369149208069
aF0.7977431720256806
aF0.8424653554916381
aF0.795691526889801
aF0.798348518371582
aF0.8105334262371063
aF0.7898679660797119
aF0.8221271306991577
aF0.7898937168121338
aF0.7911809440612793
aF0.8092624495029449
aF0.7851500554561615
aF0.822935347700119
aF0.8057587865829468
aF0.7769330532073975
aF0.8042005712985992
aF0.7739569521903992
aF0.820924519109726
aF0.7873769549369812
aF0.7827989587783813
aF0.7966719320774078
aF0.7787406640052795
aF0.8066145313262939
aF0.7912678232192993
aF0.7763525664329529
aF0.7983481630325318
aF0.7646604298591614
aF0.7864409006595612
aF0.7751212911605835
aF0.769280435180664
aF0.7772581688880921
aF0.7747478842258453
aF0.7943961851596832
aF0.7871496315956116
aF0.7626124098777771
aF0.7815254427433014
aF0.7606663971185684
aF0.7919329442977905
aF0.7691531328201294
aF0.7606350149154663
aF0.7830950813770294
aF0.7601860258579254
aF0.7841025797843933
aF0.7588281051635742
aF0.7528615806579589
aF0.7805569023609161
aF0.7453808264970779
aF0.7888458608627319
aF0.7661508248329163
aF0.7549812320709228
aF0.7600460550308228
aF0.7507447358131408
aF0.770764832019806
aF0.7402930990219116
aF0.7482857676506043
aF0.7591239482879638
aF0.7356185544967652
aF0.7725409531593322
aF0.7609240682601929
aF0.7553448853492737
aF0.7609750431060791
aF0.7333411695480346
aF0.77098032913208
aF0.742326795578003
aF0.735343201828003
aF0.7550169293880462
aF0.7342265241146088
aF0.7626289441585541
aF0.7480339321136474
aF0.7191772517204285
aF0.7365203759670258
aF0.7287454795837403
aF0.7719872522354126
aF0.735593878364563
aF0.7407856462478638
aF0.75457384390831
aF0.7224534688472748
aF0.7613825117111206
aF0.7438910427093506
aF0.7176741917610169
aF0.739669099521637
aF0.7271196317672729
aF0.7690671462535859
aF0.7484043410301209
aF0.7176637256622315
aF0.7393393860340118
aF0.7165052237987518
aF0.7570183123588562
aF0.7309561058044434
aF0.7240197238922119
aF0.7427434651851654
aF0.7077883617401123
aF0.750376984834671
aF0.7304452479362488
aF0.6964651016235351
aF0.7354245750427246
aF0.7201562749147415
aF0.7504759297370911
aF0.7252338092803955
aF0.7195268837928772
aF0.7454581275939941
aF0.7201301081180572
aF0.7488209969043732
aF0.7148943509101867
aF0.7060935618400573
aF0.7384920526504517
aF0.7092788145542145
aF0.7338742227077484
aF0.7152528659820556
aF0.6924425116539001
aF0.7233349962234497
aF0.7071212646961212
aF0.7463071702480316
aF0.7124016260147095
aF0.7023732213020325
aF0.7365451971530914
aF0.7163408381223678
aF0.7373917729139328
aF0.7047301132202148
aF0.6940822778701782
aF0.7243200355529785
aF0.6864242255926132
aF0.7277268554210663
aF0.7088392812728882
aF0.6986558410644531
aF0.7235510383605958
aF0.6971128354549408
aF0.7331073862075805
aF0.7085782591819764
aF0.6945937927246094
aF0.7178521792888641
aF0.6956819136619568
aF0.7256755887508393
aF0.7058404886245727
aF0.6973263453960419
aF0.7141078702449799
aF0.6881345376014709
aF0.7215099620819092
aF0.7043520013809204
aF0.6801238847732544
aF0.7112004381656647
aF0.7025494857311249
aF0.7452487197875977
aF0.704475965309143
aF0.6871898347854615
aF0.7218791882038117
aF0.6892166474342346
aF0.7165655021190643
aF0.6907196189880371
aF0.6805342012405395
aF0.7086355169296265
aF0.6849750365257263
aF0.7398862404823303
aF0.6834310605049133
aF0.6834187076568603
aF0.7042468110084533
aF0.6962074675798416
aF0.7253049927711487
aF0.6881225012779236
aF0.67521261343956
aF0.7069896127700805
aF0.6804944793701172
aF0.7167760618686676
aF0.7008780938148499
aF0.6766364092826843
aF0.7046557094097138
aF0.6646373395442963
aF0.7197187151908875
aF0.6872885998725891
aF0.6832709644317627
aF0.7046079512596131
aF0.6679767630100251
aF0.7237072030067444
aF0.6834544445037842
aF0.6731064581871032
aF0.7017972359657287
aF0.6909708025932312
aF0.7133096320152282
aF0.6751646123886108
aF0.6851527283668518
aF0.7040715285778045
aF0.6759154466152191
aF0.7180323175430298
aF0.6826809889793396
aF0.6755231533050537
aF0.6889498780727387
aF0.6797374089241028
aF0.7151664948940277
aF0.6842218127250671
aF0.6692608871459961
aF0.6831540296554566
aF0.6820661277770996
aF0.7151121216297149
aF0.6699499929428101
aF0.6788909155845642
aF0.6923612219810485
aF0.6725572706222535
aF0.7022999927520752
aF0.6786068398475646
aF0.6698170793533326
aF0.7009662949085236
aF0.6659314890861511
aF0.6964131080627441
aF0.6736786427497864
aF0.6711709646224976
aF0.6746633552074432
aF0.6641935001373291
aF0.7079530532836914
aF0.6674421494483948
aF0.6662714822769165
aF0.6950847745895385
aF0.6699398921966553
aF0.710662717962265
aF0.669628625011444
aF0.6660386940002442
aF0.68878394947052
aF0.6667706464529037
aF0.700108764886856
aF0.6712532848358155
aF0.6687956112861634
aF0.6850243140220642
aF0.659900398349762
aF0.6936215436935425
aF0.6748275362014771
aF0.6531063454627991
aF0.6864570762634278
aF0.6777194550514222
aF0.7156150624752045
aF0.6574944952964783
aF0.6554673344612122
aF0.6783976357460022
aF0.656433120727539
aF0.7014948766231537
aF0.6744575318336486
aF0.6542206926345825
aF0.6795787152767181
aF0.6600055834293366
aF0.6972761937141418
aF0.6560396418571472
aF0.6555263054847718
aF0.6794985709667206
aF0.6583366833209991
aF0.6904619502067566
aF0.6698557806015014
aF0.6605855702400207
aF0.6801004431724549
aF0.6712606341362
aF0.6879109490394593
aF0.6583297855377197
aF0.6602923249721527
aF0.6713738374710083
aF0.653974001955986
aF0.697170743227005
aF0.6585306575775146
aF0.6460232213973999
aF0.6773381180763245
aF0.6548957673549652
aF0.6866708947181701
aF0.6644465763092041
aF0.6639900338172913
aF0.6729534995555878
aF0.6507294153690338
aF0.6837649659872055
aF0.65760807762146
aF0.644922310256958
aF0.6492155268192291
aF0.6554480193376541
aF0.6877579229831695
aF0.6576504479408264
aF0.6415432235717774
aF0.666718481016159
aF0.6472536526679993
aF0.7007499352931976
aF0.6503962970733642
aF0.6502568101882935
aF0.6628856900215149
aF0.6509749948501586
aF0.6780647077083588
aF0.6545471121788025
aF0.6417229788303376
aF0.6711657761096954
aF0.6502916260004044
aF0.6780991378307343
aF0.6455512248039246
aF0.6477835854053497
aF0.6658449570178986
aF0.6523900634765625
aF0.6925589331150055
aF0.6568719539642334
aF0.641920300579071
aF0.6586150226116181
aF0.6534246694087982
aF0.6821973173141479
aF0.6514860872268676
aF0.648308473777771
aF0.6653725771427155
aF0.6422970621585846
aF0.6760832554101944
aF0.664892900466919
aF0.6497974946022034
aF0.6795750788450241
aF0.6363308491706848
aF0.6763410941362381
aF0.6537199427127838
aF0.639838418006897
aF0.6448545917510986
aF0.6467992440700531
aF0.6811667579174042
aF0.6486458896636963
aF0.6357027133464813
aF0.6445454540967941
aF0.6443657113552094
aF0.6812407017230988
aF0.642004478263855
aF0.6387635129928589
aF0.6616226547241211
aF0.6463789248466492
aF0.6813458774328232
aF0.6433638339996338
aF0.6336964816093444
aF0.6622461834430694
aF0.6491082271337509
aF0.6837959523916245
aF0.6375157459259033
aF0.635157406425476
aF0.6603354380607604
aF0.6362413353919983
aF0.6749542685031891
aF0.6412801590919495
aF0.6295174006462098
aF0.6653526241779327
aF0.652122800374031
aF0.669968126821518
aF0.6533392292022705
aF0.6355215784072876
aF0.6612929162979126
aF0.6418063149213791
aF0.6737203401088715
aF0.6374583539009094
aF0.6298787508964538
aF0.6535843545913697
aF0.6344274458885193
aF0.6560596961021423
aF0.6406124927520752
aF0.6424777066230773
aF0.6626942020654678
aF0.6347201750278473
aF0.6745033714294434
aF0.6422299735069275
aF0.6214660891532898
aF0.6377373181343079
aF0.6146125265359879
aF0.6717404233455658
aF0.6449849898338318
aF0.6328150169849396
aF0.6497501385688782
aF0.6481967217922211
aF0.6694393837928772
aF0.640298761844635
aF0.6286156441688537
aF0.6413263399124145
aF0.634453297662735
aF0.6634237917423248
aF0.6283338322639466
aF0.639046114730835
aF0.6411263928413391
aF0.6347195727109909
aF0.6611603180408477
aF0.6431100024223327
aF0.6296566155433655
aF0.6491747385025024
aF0.6253425188541413
aF0.6782623270511627
aF0.6348226438522339
aF0.6323157807350158
aF0.65100531539917
aF0.6320941747903824
aF0.6538392559289933
aF0.6297859222412109
aF0.6244127318859101
aF0.6438465883731842
aF0.628572661113739
aF0.6670629965305328
aF0.639588984966278
aF0.6222761232376098
aF0.6300838777065277
aF0.651049328327179
aF0.6632188117027282
aF0.6266740138053895
aF0.6245811158180237
aF0.6432686707496643
aF0.6243456067323685
aF0.6564461735725403
aF0.6228119142055512
aF0.6250601996421814
aF0.6481581596374512
aF0.6287072667360306
aF0.669173908662796
aF0.6292744892120361
aF0.6227683097839355
aF0.6464447558403015
aF0.6187119524002075
aF0.6555782270908356
aF0.6272976630210877
aF0.629915773487091
aF0.6405877249717712
aF0.6277118297576905
aF0.6434047242641449
aF0.6349791957855224
aF0.63794127368927
aF0.6352571111917495
aF0.623976285648346
aF0.6552884896278381
aF0.6344956223487854
aF0.6176478501319885
aF0.6376503313541413
aF0.6232910150527954
aF0.6454958687305451
aF0.6193666067123413
aF0.6186011051654816
aF0.6306392851114273
aF0.6281293307781219
aF0.6672249080657959
aF0.6190381345748901
aF0.6176319063186646
aF0.6422471714019775
aF0.6355909910440445
aF0.6644992229223251
aF0.6242310389041901
aF0.60775434923172
aF0.6434382503032684
aF0.6209166243076324
aF0.6610532388687134
aF0.6228816668510437
aF0.6202717725276947
aF0.6474630862236023
aF0.6248313146591187
aF0.6550725968360901
aF0.6251868908882141
aF0.6113501157283783
aF0.6324464657783508
aF0.6125597599029541
aF0.6696415996789932
aF0.6212844361305236
aF0.6133318281173706
aF0.641916420173645
aF0.6321887985229492
aF0.6554098201513291
aF0.6138792063713073
aF0.6209698589324951
aF0.6350124491453171
aF0.6124467580795289
aF0.6661565546035767
aF0.612791214466095
aF0.6180425983428955
aF0.6446907648086548
aF0.610946897661686
aF0.6573866495609283
aF0.6198845458030701
aF0.6123799333572387
aF0.6362601796150208
aF0.6096885528564453
aF0.6560386295318603
aF0.622562411737442
aF0.6147197628974914
aF0.6374020509719849
aF0.6233191983699798
aF0.6441804835796356
aF0.6125840067863464
aF0.6161064529418945
aF0.6400819838523865
aF0.6145494817256928
aF0.6504049825191498
aF0.6230234706878662
aF0.6163701445579529
aF0.6307809740543365
aF0.6098020360469818
aF0.6507121025800705
aF0.6107506388664246
aF0.6093056247711182
aF0.6341504227399826
aF0.6077436135292054
aF0.6559820055484772
aF0.6130279755592346
aF0.6169692556858063
aF0.6211799205303192
aF0.6104937699794769
aF0.665907131266594
aF0.6125133583068848
aF0.6191084856033325
aF0.6262999097108841
aF0.6111218093872071
aF0.6535656465053559
aF0.6131836901664733
aF0.6119415969371795
aF0.6256060189723969
aF0.6190110385894776
aF0.6505362013339996
aF0.6162810199737548
aF0.6115710848808289
aF0.6293543750286102
aF0.6086033247709274
aF0.6495724184989929
aF0.6145834949493408
aF0.6085851042747498
aF0.6230546234130859
aF0.6144038815736771
aF0.6583012296438218
aF0.6210031728744507
aF0.6043664808750152
aF0.6318845567464828
aF0.6215428457140922
aF0.6398578683376313
aF0.622954568862915
aF0.6094005291938782
aF0.6302786450147628
aF0.6004479333877564
aF0.6437977222919464
aF0.6080101713180542
aF0.599264352273941
aF0.6343650018215179
aF0.600529473733902
aF0.6457487144947052
aF0.6174657013893128
aF0.611128918838501
aF0.6215230290412903
aF0.6076073740005493
aF0.6526760925292969
aF0.6128946899414063
aF0.6082809545516967
aF0.6328523591995239
aF0.605734976220131
aF0.6401385605812073
aF0.6141623980522156
aF0.6010809950351715
aF0.6317683346271515
aF0.6083185210227966
aF0.6485933200359344
aF0.6156600766181946
aF0.6015951900482178
aF0.6279477722167969
aF0.6123382399559021
aF0.6291713582992554
aF0.6051187654495239
aF0.6085807598590851
aF0.6314142766952515
aF0.6179015346527099
aF0.6604172661781311
aF0.6070657932281495
aF0.6072574351787567
aF0.6107263503789901
aF0.6014119399547577
aF0.643903969335556
aF0.6054448172092438
aF0.6019977211713791
aF0.6316041892528534
aF0.6009892166614532
aF0.6542651177406311
aF0.6051465053558349
aF0.6137759897708893
aF0.6139760826349259
aF0.595215147638321
aF0.6386989845514297
aF0.6115326292037964
aF0.6136402781963348
aF0.6222442126274109
aF0.6125148749113083
aF0.6523912561893463
aF0.609237922000885
aF0.6039996662139893
aF0.6369489105701447
aF0.6102174052000046
aF0.6390107837915421
aF0.6082200465202332
aF0.603037881231308
aF0.6152240155220031
aF0.609380313372612
aF0.6368207324504852
aF0.6112333594322205
aF0.6128873889923095
aF0.6199720134735107
aF0.6085082247257233
aF0.63835043592453
aF0.6210290234565735
aF0.6013880558490753
aF0.6242107217788696
aF0.6150978510379791
aF0.6376257842063904
aF0.6161263336658478
aF0.5989601674079895
aF0.6258917441368103
aF0.6078552182197571
aF0.644318629360199
aF0.6033547148704529
aF0.5927217014312745
aF0.6164221225261688
aF0.6116673235177994
aF0.6364760255813598
aF0.5918428761482238
aF0.5918506797313691
aF0.6089762892723084
aF0.6149767189502716
aF0.6314269034862519
aF0.6068294323921204
aF0.6011360471725464
aF0.6204590405464172
aF0.6035467144012451
aF0.6498442459583282
aF0.6083429175376892
aF0.6028889076709747
aF0.6216432203769684
aF0.6056473672270775
aF0.6328082581281662
aF0.5955977773666382
aF0.6071505653858185
aF0.6310794728755951
aF0.598226254940033
aF0.6496163740158081
aF0.6021118579864502
aF0.5995294392585755
aF0.6083054630756378
aF0.6030469332695008
aF0.6355205639362336
aF0.6022893059253692
aF0.6002051582336426
aF0.6398850083827973
aF0.5982105067014695
aF0.6436055076122283
aF0.6071387324333191
aF0.594839459323883
aF0.6142962870597839
aF0.5962534199714661
aF0.6301510867595672
aF0.5979799150466919
aF0.5902296955108642
aF0.621934792137146
aF0.6023009923696518
aF0.6343178783416749
aF0.6064999305725097
aF0.6058128939628601
aF0.6186313093662262
aF0.6080943417310715
aF0.6386698490858078
aF0.5942429574489594
aF0.5915265979766846
aF0.6084047822952271
aF0.604931531047821
aF0.6325540596246719
aF0.5964833301544189
aF0.5940250032424926
aF0.6154946838617325
aF0.5871411036491394
aF0.6271202433109283
aF0.5955348608016968
aF0.5997534477233887
aF0.6227340096235275
aF0.5921562549591064
aF0.6423429602622985
aF0.5896793509483338
aF0.5957457210540772
aF0.6185718046188354
aF0.5999540397167206
aF0.6472073564052582
aF0.6102604032039642
aF0.5829462986469269
aF0.6076643362045288
aF0.6081135301113129
aF0.6357039572715759
aF0.5971186822414398
aF0.5884503234386445
aF0.6355787676334381
aF0.5888715409040451
aF0.6331899659156799
aF0.6052227401733399
aF0.5962919628143311
aF0.6147320250511169
aF0.6008594035148621
aF0.6349866839885712
aF0.6089863536834716
aF0.5935818587303162
aF0.6118288942098618
aF0.6149828477144241
aF0.6269933162689209
aF0.6022276142120361
aF0.5912384461402893
aF0.6066139134883881
aF0.5991106363058091
aF0.6243491533756256
aF0.6044049584388733
aF0.5938910231590271
aF0.6098124865055085
aF0.5949937074899674
aF0.6297466622114182
aF0.5966273838996887
aF0.5945382477760315
aF0.6029007688045501
aF0.5927777732133865
aF0.6217535301446915
aF0.5928211157798767
aF0.5930054974555969
aF0.6200849489688873
aF0.5885403737545013
aF0.6349921457529067
aF0.5833331616401672
aF0.5993164315223694
aF0.6014351148605347
aF0.5927020124435425
aF0.6395870403289795
aF0.6011105764389038
aF0.5976331354141236
aF0.6231205880641937
aF0.6102144338130951
aF0.6412345160961151
aF0.5852981074333191
aF0.5991422288417816
aF0.6145831476449967
aF0.595649421453476
aF0.6242069868087768
aF0.60374649477005
aF0.58585483045578
aF0.6194931128263473
aF0.6032744180440903
aF0.627697430229187
aF0.5936227656364441
aF0.5936395378112793
aF0.6173455634117127
aF0.5889265491724014
aF0.6283770611763001
aF0.5849014808654786
aF0.5852621143341065
aF0.6106093392372132
aF0.5862236317634583
aF0.6307906476259232
aF0.5966936715126038
aF0.5854982732772828
aF0.5896348624944687
aF0.5946229095458985
aF0.6269494709253312
aF0.5926861134529113
aF0.5827976543426514
aF0.6128346534729003
aF0.5929062909126281
aF0.6340694581985473
aF0.6088152935981751
aF0.5914984867095947
aF0.6097272020339966
aF0.5943110476613045
aF0.6252281849861145
aF0.5964395804405213
aF0.5915405324935913
aF0.5972758558750153
aF0.5872986347675323
aF0.6203073364257813
aF0.5943172558784485
aF0.5928241022109986
aF0.6006506284713745
aF0.5908341224193573
aF0.6239587740898133
aF0.5965045453071595
aF0.584450456237793
aF0.6011942841291428
aF0.5934431498527527
aF0.6310014536857605
aF0.5949530583381653
aF0.5880588881492614
aF0.5976209789514542
aF0.596877724647522
aF0.6149088971138
aF0.5806679903030395
aF0.5862589169502258
aF0.615686163520813
aF0.5966639747619629
aF0.624164470410347
aF0.5901115835666656
aF0.5774450604915619
aF0.6020427469730377
aF0.5928126045227051
aF0.6206267925739288
aF0.5827885841846466
aF0.5844461177825928
aF0.5982899802684783
aF0.5917223492622375
aF0.6179420833349228
aF0.5945534359931945
aF0.5772046810626984
aF0.5993753611087799
aF0.5913831540107727
aF0.628399904870987
aF0.5936862133026123
aF0.594092066192627
aF0.6084337344169617
aF0.5855135520458221
aF0.6213715352058411
aF0.5890070202827453
aF0.5794286588191986
aF0.5913349610090256
aF0.5805534610152244
aF0.6160886211872101
aF0.582812529373169
aF0.5769006669044494
aF0.6102496031284332
aF0.5864706781864166
aF0.6205236394882202
aF0.5908936237335205
aF0.5939389297485351
aF0.6133450064659118
aF0.5896610357284546
aF0.6151807839870453
aF0.6027137044906616
aF0.5910188408851623
aF0.5959608202934266
aF0.6100618389129638
aF0.6308380298376083
aF0.5928785109519958
aF0.5767714483737946
aF0.6043123277902603
aF0.5768600572824478
aF0.6249237125873566
aF0.5923523436546325
aF0.5877884534358978
aF0.6006487651824951
aF0.584780949306488
aF0.6245796077251434
aF0.5914831499099732
aF0.5812758994102478
aF0.5944603178977966
aF0.5899020076036453
aF0.6181223760843277
aF0.5942140904426575
aF0.5871169309139251
aF0.6086508334159851
aF0.6012520103454589
aF0.6370289832592011
aF0.5891022533416748
aF0.5750972482681275
aF0.5957341153621674
aF0.5791610345125199
aF0.6291177609920502
aF0.5887399847984314
aF0.5766218678951264
aF0.6031371588706971
aF0.5989021131515503
aF0.628305612373352
aF0.6041062607765197
aF0.5891537751674653
aF0.6069995350599289
aF0.5785058870315551
aF0.6108022759437561
aF0.5980372172355651
aF0.5794768780231476
aF0.6075033043384552
aF0.5881307768344879
aF0.6038648155689239
aF0.581562121629715
aF0.577320662689209
aF0.5952758259773254
aF0.585558910048008
aF0.6140990331172943
aF0.591296977519989
aF0.5682718379974365
aF0.612002727651596
aF0.5828665672302246
aF0.6161967573165894
aF0.5904049452781677
aF0.5831965003967285
aF0.599131749677658
aF0.5752692574501037
aF0.6252836794376373
aF0.5941108339309692
aF0.5786173615455628
aF0.6117353374481201
aF0.5927774611473083
aF0.6127473600387573
aF0.5876005007743835
aF0.5756650703430176
aF0.5969741975784302
aF0.5853880067825318
aF0.6264117636680603
aF0.5869237166404724
aF0.5718375815391541
aF0.5971861630916595
aF0.5735171167850495
aF0.6243238567352295
aF0.5913321662902832
aF0.5751091612815857
aF0.6019032298088074
aF0.5845524484634399
aF0.6133378383636474
aF0.5935260765075684
aF0.5965357734680176
aF0.5929603579521179
aF0.5790067628860474
aF0.6201365988612175
aF0.5764682600975036
aF0.5976109678268433
aF0.6045367808818817
aF0.5924366083621979
aF0.622232195520401
aF0.5747892625331879
aF0.5734277201175689
aF0.594760605430603
aF0.5871614707946777
aF0.6239149971246719
aF0.5788115366458892
aF0.5722375361442565
aF0.5880667553901673
aF0.5774291798114777
aF0.6115785693883896
aF0.5864583437919617
aF0.5847401802062988
aF0.605002108335495
aF0.5812815748453141
aF0.6198460224628448
aF0.5858661826133728
aF0.5700204691886902
aF0.5889018091440201
aF0.5828271518945694
aF0.606280311203003
aF0.5875549031734466
aF0.5770160843372345
aF0.5967574264526367
aF0.5800040338754654
aF0.6221987761020661
aF0.5799374861717224
aF0.580576563167572
aF0.5897408292293549
aF0.5883402257680893
aF0.6297853269100189
aF0.5865718450546265
aF0.5762869325637817
aF0.6090707094669342
aF0.5754879397392273
aF0.6166245728254318
aF0.5810838545799255
aF0.5840133826732635
aF0.6054136419296264
aF0.5858758689522743
aF0.6117659111499787
aF0.580316462135315
aF0.5729107341766357
aF0.5904170358181
aF0.5858567571163178
aF0.6105583461761475
aF0.5809097238063812
aF0.5606874509096146
aF0.5899900851726532
aF0.5714986725330353
aF0.6047020233154297
aF0.5897796388626099
aF0.5866542681217194
aF0.5956581907749176
aF0.5841207531452179
aF0.6033436307430268
aF0.5812075627326966
aF0.5700736274719238
aF0.5948802520751953
aF0.5745403543949127
aF0.6047991070270539
aF0.5807715489387513
aF0.575796261548996
aF0.5877703896999359
aF0.5749807736873627
aF0.6247864594459533
aF0.5793670408248901
aF0.581728773021698
aF0.6067246879100799
aF0.572732421207428
aF0.6122225263833999
aF0.571451270866394
aF0.5892219614028931
aF0.6108383874893188
aF0.5896793070554733
aF0.6154751541614533
aF0.5686840656280517
aF0.5824903780937195
aF0.590747960472107
aF0.5695021958112717
aF0.6163911171913147
aF0.5761570002555847
aF0.5677840722560883
aF0.5987221580982208
aF0.5749552337646484
aF0.6075381129741668
aF0.5769692954063416
aF0.5770551003456116
aF0.601064015340805
aF0.5906418689012527
aF0.614575883436203
aF0.5791642663955688
aF0.582831254196167
aF0.5945916048049926
aF0.593993928694725
aF0.6001018961906434
aF0.5872735271930695
aF0.5770787218093872
aF0.6002246655941009
aF0.5796985771894455
aF0.6138982545852661
aF0.5798294712066651
aF0.5781347528457642
aF0.5991233462810517
aF0.5853958587169648
aF0.6215239583730697
aF0.5913754083633422
aF0.5757363137245178
aF0.5901728348970413
aF0.5840512911558151
aF0.6010273305177689
aF0.5794737524986268
aF0.5728283164024353
aF0.5878619465827942
aF0.5799683552265167
aF0.6094080934524536
aF0.5822466330051422
aF0.5585345203876495
aF0.586554397726059
aF0.5743316076040268
aF0.6088790951728821
aF0.5833262437820435
aF0.5756790739059449
aF0.5820954917430877
aF0.5648605599999428
aF0.6031783863544464
aF0.5747510011672974
aF0.5769843476772308
aF0.5930284452915192
aF0.5814312720298767
aF0.6108921780586243
aF0.5750982975959777
aF0.5663915703773499
aF0.5870339031219483
aF0.5954894464731216
aF0.6090509510040283
aF0.5796597704887391
aF0.568957487487793
aF0.5929979107618332
aF0.572200178194046
aF0.6064084359169006
aF0.5759130396366119
aF0.5718766072273255
aF0.5914234282493591
aF0.5891475390195846
aF0.6072325624465943
aF0.5773122779846191
aF0.5751003768444062
aF0.5767730236530304
aF0.5778640771150589
aF0.6037135824203491
aF0.5814453412532806
aF0.5749747314453125
aF0.5901303514003754
aF0.5751735428571702
aF0.6188727906703949
aF0.5676148442268372
aF0.5721017485141754
aF0.5837554216384888
aF0.5856995759010315
aF0.6143006973743439
aF0.5719265495300293
aF0.5717176511764527
aF0.5910354474306106
aF0.5748080449104309
aF0.6236168190956116
aF0.572596126317978
aF0.5633807890892029
aF0.6037203234195709
aF0.5745888654708863
aF0.6095403863668442
aF0.5683956831932068
aF0.5697448270797729
aF0.5855488171577453
aF0.5816810497403145
aF0.6005885210514068
aF0.5864667351722718
aF0.5876592557430267
aF0.5940424890756607
aF0.5759932982921601
aF0.6075559251546859
aF0.575377062177658
aF0.5768334755897522
aF0.5789748980760574
aF0.5678382472753525
aF0.6018734768867493
aF0.5667966339111328
aF0.5663788333892822
aF0.597497759771347
aF0.5722259907007218
aF0.6065659209251404
aF0.5779413245677948
aF0.5698515826225281
aF0.5907928498744964
aF0.5734172431945801
aF0.6091991157531739
aF0.5739366182804108
aF0.5739714150905609
aF0.5935943540334702
aF0.562371719455719
aF0.5862992102622986
aF0.5677603708267212
aF0.5780027122020721
aF0.5892528188705445
aF0.5754407318592072
aF0.6078781504631042
aF0.5689647153377533
aF0.5552142746925354
aF0.5925815246105194
aF0.5746822213411331
aF0.6138372703552246
aF0.5701931335449218
aF0.5794564912796021
aF0.5920298894166947
aF0.5597318730354309
aF0.5987321123600006
aF0.5590263825416565
aF0.5769764875888824
aF0.5866008555650711
aF0.5736188461780548
aF0.6161974495410919
aF0.5824998992919922
aF0.5809623578071594
aF0.573305277132988
aF0.5783216794013977
aF0.6015990825891495
aF0.5702581772327423
aF0.5629485635280609
aF0.57379783244133
aF0.5584237173557282
aF0.6097513378858567
aF0.5708550364971161
aF0.5541735105514526
aF0.5813826339721679
aF0.5750882994413375
aF0.6194225862503052
aF0.5704212333679199
aF0.5648928667068481
aF0.5864569973707199
aF0.5659468509674073
aF0.6023972400188446
aF0.5740755096435547
aF0.5869064079284668
aF0.5835243551254272
aF0.5729501318454743
aF0.6009999446630477
aF0.5805694261550903
aF0.5734223433494567
aF0.5833375862598419
aF0.5733948448181152
aF0.6034630987644195
aF0.5777013332366944
aF0.5578060354232788
aF0.584779342007637
aF0.5652802389621735
aF0.5858160729169846
aF0.5680892929077148
aF0.5698644237518311
aF0.5936005580425262
aF0.5605711285352707
aF0.5843316447973251
aF0.5741610455989837
aF0.5741710053443909
aF0.5884662774324417
aF0.5700032016515731
aF0.5920403127670288
aF0.5717826380729675
aF0.5650677234649658
aF0.5933673159360886
aF0.570950560092926
aF0.6063898676156998
aF0.5652514468669891
aF0.5698161394119262
aF0.5948869712352752
aF0.5777818786978721
aF0.59838675365448
aF0.566599219942093
aF0.5712783181190491
aF0.575667409324646
aF0.5704595290184021
aF0.6146078510761261
aF0.5639079672336579
aF0.5614260161399841
aF0.5922451793193817
aF0.5665004796743393
aF0.6067890585899353
aF0.576204986858368
aF0.572657788181305
aF0.592592447566986
aF0.5733355785131454
aF0.5988325393676758
aF0.569324382686615
aF0.5697300528526306
aF0.5771472602367401
aF0.5633416216611862
aF0.5942391763448716
aF0.5637092095375061
aF0.5736540411472321
aF0.5778401187419892
aF0.5665605011463165
aF0.6024787384510041
aF0.57855588722229
aF0.5610265170574188
aF0.581719256067276
aF0.5695651453018189
aF0.5964480825424194
aF0.5834088897705079
aF0.5666713572502137
aF0.5821503350257874
aF0.5605775925159454
aF0.6041624218940734
aF0.5732792825698853
aF0.56293365483284
aF0.5641107900619506
aF0.5623300111293793
aF0.5992067404747009
aF0.5654528055667877
aF0.5692016657829284
aF0.5825025320529937
aF0.5774979365110398
aF0.6028904268264771
aF0.5705812080383301
aF0.5626472352266312
aF0.5817776631593704
aF0.5758927807569504
aF0.5889123718261718
aF0.5659552783966064
aF0.5705340084075927
aF0.5847381079912186
aF0.5634283690452576
aF0.5882577511548996
aF0.56672817735672
aF0.5792604415893555
aF0.5810210561275482
aF0.573364305639267
aF0.592551206612587
aF0.5657936275959015
aF0.581200788116455
aF0.5657779097080231
aF0.5639908554553985
aF0.5890885608196259
aF0.5780081396102905
aF0.5589429727077484
aF0.5774834400653839
aF0.5691725625991821
aF0.6014541229009628
aF0.5610220561981201
aF0.5530690388679504
aF0.5777412216186524
aF0.5643134193181991
aF0.602932168674469
aF0.5682593611717224
aF0.5704336199760437
aF0.572569553565979
aF0.5600929829597473
aF0.6081778992414475
aF0.5634785997390747
aF0.5664184342384339
aF0.582041243648529
aF0.5728166835784912
aF0.5939270756721496
aF0.5751361643791199
aF0.5619285984516144
aF0.5823903942108154
aF0.5740309381484985
aF0.58692304084301
aF0.5690000896453857
aF0.5520067962646484
aF0.5809101382732391
aF0.5651385561227799
aF0.6033258586406708
aF0.5736346429824829
aF0.5614008086681366
aF0.5857464749574661
aF0.5682134665727615
aF0.5922279161214828
aF0.5622957221984863
aF0.5580292907238007
aF0.5954324242115021
aF0.5637294826984406
aF0.5818943260192871
aF0.5566282066345215
aF0.5575090071201324
aF0.5691278202772141
aF0.5775925632715225
aF0.5914194336414337
aF0.5667222243309021
aF0.565259719133377
aF0.5849656319141388
aF0.5784898815274239
aF0.6070846696615219
aF0.5579886920928955
aF0.5729133503913879
aF0.5627637168884277
aF0.5559282487630844
aF0.5918598495483398
aF0.556737133693695
aF0.5692139176845551
aF0.5798988428115844
aF0.5638331439256669
aF0.5968170455932618
aF0.5632051763534546
aF0.5613644280910491
aF0.5850180223464966
aF0.5689392909526825
aF0.5925307740449905
aF0.5671211295604706
aF0.564018860912323
aF0.5908079590797425
aF0.5703862625598908
aF0.6138354809761047
aF0.570840728187561
aF0.5634523515224457
aF0.5764551865577697
aF0.5582602719068527
aF0.593116676402092
aF0.562066971874237
aF0.5616268298625946
aF0.578371813583374
aF0.5703851778626442
aF0.6003034551143647
aF0.558647277879715
aF0.5601422859668732
aF0.5818359192371368
aF0.5680449359893799
aF0.5840952679157257
aF0.5582060907363892
aF0.5583062192440033
aF0.5797361228942871
aF0.5685638455629348
aF0.5965799139499665
aF0.5757393103599548
aF0.5631407262563706
aF0.5801628291845322
aF0.5578505518436432
aF0.6001766601324081
aF0.5687833330631256
aF0.5472288433074951
aF0.585308300113678
aF0.5591763596653938
aF0.5944265418052673
aF0.5583585658550262
aF0.5618707155704499
aF0.593522241806984
aF0.5657255499839783
aF0.6031717797756195
aF0.5627568628311157
aF0.5649174978256225
aF0.5708115155458451
aF0.5514448616266251
aF0.6044704649925232
aF0.5490117599964142
aF0.5602551659584045
aF0.5761343458414078
aF0.577590561056137
aF0.5983501079320908
aF0.5653228625297546
aF0.5525493857860565
aF0.5797143560409546
aF0.5764327792167664
aF0.6035463406562805
aF0.5605541719436645
aF0.5592217487812042
aF0.5894580668926239
aF0.5765919852733612
aF0.5919066651821137
aF0.5598102100849152
aF0.5617137559890747
aF0.5775131928443908
aF0.5719380721092224
aF0.6098708634376526
aF0.5677617497444153
aF0.564692569065094
aF0.5706982968568802
aF0.5547678810596466
aF0.5950029829025268
aF0.5565183228969574
aF0.5613035970687866
aF0.5723527904987336
aF0.5761583879232407
aF0.6068234589576721
aF0.5774488701820374
aF0.5526980791568756
aF0.5780857526779175
aF0.578914827299118
aF0.585662885928154
aF0.5565726005077362
aF0.5534917803287506
aF0.5793122505664825
aF0.5756823977947235
aF0.5943419868469239
aF0.5647512050151825
aF0.5574029883861542
aF0.5830781676292419
aF0.5554816039085388
aF0.5900817938089371
aF0.5658341567993164
aF0.5608495063781739
aF0.5806744607210159
aF0.5738276832580567
aF0.5982562832355499
aF0.5651756493568421
aF0.5570286809444428
aF0.582454327249527
aF0.5597396196126938
aF0.5946381292343139
aF0.5638028558731079
a.