(lp0
F0.8657
aF0.7693
aF0.7111
aF0.6535
aF0.6094
aF0.5898
aF0.5395
aF0.5073
aF0.4707
aF0.4551
aF0.444
aF0.425
aF0.4138
aF0.384
aF0.3819
aF0.4373
aF0.3742
aF0.3816
aF0.3583
aF0.3619
aF0.3447
aF0.3513
aF0.3334
aF0.3309
aF0.3128
aF0.3291
aF0.3035
aF0.3028
aF0.3009
aF0.3119
aF0.2854
aF0.2916
aF0.3007
aF0.2871
aF0.2843
aF0.2909
aF0.2724
aF0.2796
aF0.2753
aF0.2677
aF0.2683
aF0.2668
aF0.2575
aF0.263
aF0.2581
aF0.2696
aF0.2548
aF0.2603
aF0.25
aF0.2475
aF0.2545
aF0.248
aF0.2488
aF0.2481
aF0.2383
aF0.2404
aF0.2357
aF0.2318
aF0.2356
aF0.2307
aF0.229
aF0.2271
aF0.2273
aF0.2307
aF0.2161
aF0.226
aF0.2141
aF0.2186
aF0.2176
aF0.2116
aF0.2158
aF0.2088
aF0.2035
aF0.2149
aF0.2129
aF0.2477
aF0.2084
aF0.2179
aF0.2085
aF0.2471
aF0.2024
aF0.2103
aF0.2042
aF0.2417
aF0.2013
aF0.2114
aF0.2086
aF0.231
aF0.1998
aF0.2018
aF0.1934
aF0.2185
aF0.1914
aF0.1974
aF0.186
aF0.2293
aF0.1863
aF0.1902
aF0.1892
aF0.2171
aF0.1847
aF0.1942
aF0.1896
aF0.2086
aF0.1833
aF0.1964
aF0.181
aF0.2044
aF0.1829
aF0.1814
aF0.1729
aF0.204
aF0.177
aF0.1897
aF0.1802
aF0.198
aF0.1769
aF0.181
aF0.177
aF0.1918
aF0.1749
aF0.1841
aF0.1856
aF0.1964
aF0.1684
aF0.1811
aF0.1727
aF0.192
aF0.1706
aF0.1786
aF0.1696
aF0.1872
aF0.1639
aF0.1758
aF0.1743
aF0.1842
aF0.1647
aF0.1647
aF0.1663
aF0.1772
aF0.1619
aF0.1703
aF0.1615
aF0.1793
aF0.1682
aF0.1684
aF0.1635
aF0.1825
aF0.165
aF0.1577
aF0.1539
aF0.1863
aF0.1623
aF0.1616
aF0.1559
aF0.1762
aF0.1619
aF0.1665
aF0.161
aF0.1671
aF0.1535
aF0.1587
aF0.157
aF0.1673
aF0.1612
aF0.1766
aF0.1444
aF0.1568
aF0.1733
aF0.2057
aF0.1589
aF0.156
aF0.155
aF0.1615
aF0.1944
aF0.1606
aF0.1524
aF0.1532
aF0.1565
aF0.1861
aF0.1508
aF0.152
aF0.1481
aF0.1628
aF0.1806
aF0.1607
aF0.1484
aF0.1505
aF0.1647
aF0.1762
aF0.1528
aF0.1549
aF0.1481
aF0.1587
aF0.1779
aF0.1925
aF0.1515
aF0.1515
aF0.1639
aF0.1703
aF0.1496
aF0.1489
aF0.1529
aF0.1592
aF0.166
aF0.148
aF0.1411
aF0.1504
aF0.1654
aF0.1633
aF0.1438
aF0.1436
aF0.1406
aF0.1512
aF0.1642
aF0.1461
aF0.1428
aF0.1378
aF0.1511
aF0.1564
aF0.138
aF0.1381
aF0.1435
aF0.1538
aF0.1555
aF0.1498
aF0.1388
aF0.1358
aF0.1479
aF0.157
aF0.1431
aF0.1408
aF0.1373
aF0.1429
aF0.1562
aF0.1354
aF0.1413
aF0.1397
aF0.1587
aF0.1543
aF0.1387
aF0.1402
aF0.1331
aF0.1462
aF0.1523
aF0.1353
aF0.1343
aF0.1344
aF0.1434
aF0.1567
aF0.1435
aF0.1337
aF0.136
aF0.1426
aF0.155
aF0.1372
aF0.1349
aF0.1339
aF0.1429
aF0.1468
aF0.1386
aF0.1452
aF0.1413
aF0.1425
aF0.1503
aF0.133
aF0.1369
aF0.1364
aF0.151
aF0.1384
aF0.1334
aF0.1388
aF0.132
aF0.1364
aF0.1428
aF0.1363
aF0.1386
aF0.1316
aF0.1403
aF0.1441
aF0.132
aF0.1329
aF0.1262
aF0.1343
aF0.1411
aF0.1404
aF0.1297
aF0.1267
aF0.1381
aF0.144
aF0.1344
aF0.1293
aF0.1377
aF0.129
aF0.1361
aF0.1323
aF0.1281
aF0.1312
aF0.1328
aF0.1424
aF0.1316
aF0.1338
aF0.1242
aF0.1366
aF0.1392
aF0.1464
aF0.126
aF0.1241
aF0.133
aF0.1354
aF0.1276
aF0.1278
aF0.1265
aF0.1331
aF0.1364
aF0.1303
aF0.1311
aF0.1194
aF0.1396
aF0.1361
aF0.124
aF0.128
aF0.1219
aF0.1343
aF0.1374
aF0.1493
aF0.1343
aF0.1307
aF0.1338
aF0.1424
aF0.1273
aF0.1245
aF0.1245
aF0.1354
aF0.1301
aF0.1247
aF0.1231
aF0.1296
aF0.1323
aF0.1287
aF0.1225
aF0.1263
aF0.1224
aF0.1297
aF0.1385
aF0.1218
aF0.1285
aF0.1215
aF0.129
aF0.1335
aF0.1231
aF0.1284
aF0.1201
aF0.1353
aF0.1376
aF0.1275
aF0.1238
aF0.1216
aF0.1289
aF0.1288
aF0.1241
aF0.1254
aF0.1252
aF0.1352
aF0.1253
aF0.1253
aF0.1197
aF0.1201
aF0.1274
aF0.1291
aF0.1214
aF0.1242
aF0.1262
aF0.1257
aF0.1296
aF0.119
aF0.1217
aF0.1201
aF0.1265
aF0.1248
aF0.1159
aF0.1208
aF0.128
aF0.1267
aF0.1324
aF0.1199
aF0.117
aF0.1142
aF0.1223
aF0.1296
aF0.1217
aF0.1203
aF0.1255
aF0.1199
aF0.1314
aF0.1299
aF0.1227
aF0.1197
aF0.1307
aF0.1252
aF0.1211
aF0.1175
aF0.1196
aF0.1179
aF0.1238
a.