(lp0
F0.7868
aF0.684
aF0.6395
aF0.6092
aF0.5783
aF0.5718
aF0.5427
aF0.5301
aF0.5126
aF0.5024
aF0.4883
aF0.4765
aF0.4593
aF0.4602
aF0.4439
aF0.4381
aF0.4438
aF0.4582
aF0.4318
aF0.4547
aF0.4154
aF0.4362
aF0.4081
aF0.4332
aF0.403
aF0.4165
aF0.3956
aF0.3985
aF0.3856
aF0.3975
aF0.3794
aF0.3893
aF0.3933
aF0.3711
aF0.3802
aF0.3833
aF0.355
aF0.3692
aF0.3749
aF0.3633
aF0.3645
aF0.3636
aF0.3456
aF0.3577
aF0.355
aF0.3519
aF0.3545
aF0.3586
aF0.3355
aF0.3428
aF0.3458
aF0.3289
aF0.3483
aF0.336
aF0.3246
aF0.3387
aF0.3293
aF0.3295
aF0.3331
aF0.333
aF0.3206
aF0.3277
aF0.325
aF0.3157
aF0.3281
aF0.3196
aF0.3136
aF0.3233
aF0.3144
aF0.3077
aF0.3169
aF0.3075
aF0.3072
aF0.3139
aF0.3084
aF0.3004
aF0.3011
aF0.3155
aF0.304
aF0.3255
aF0.2985
aF0.3072
aF0.3001
aF0.3236
aF0.3009
aF0.3042
aF0.2984
aF0.3201
aF0.3007
aF0.2976
aF0.29
aF0.3164
aF0.2951
aF0.3057
aF0.2887
aF0.3036
aF0.2874
aF0.2845
aF0.2882
aF0.3131
aF0.2934
aF0.2988
aF0.2869
aF0.2978
aF0.2821
aF0.2922
aF0.2749
aF0.2937
aF0.2765
aF0.2824
aF0.2857
aF0.2949
aF0.2804
aF0.2796
aF0.2786
aF0.2927
aF0.2697
aF0.283
aF0.2763
aF0.2852
aF0.272
aF0.2798
aF0.2637
aF0.2858
aF0.2783
aF0.2749
aF0.2704
aF0.2851
aF0.2692
aF0.2786
aF0.2675
aF0.2897
aF0.2759
aF0.2756
aF0.2635
aF0.284
aF0.2664
aF0.2735
aF0.2634
aF0.276
aF0.2646
aF0.2723
aF0.2621
aF0.2805
aF0.2647
aF0.2725
aF0.2604
aF0.2796
aF0.2627
aF0.2648
aF0.2622
aF0.2759
aF0.2699
aF0.2645
aF0.2596
aF0.2778
aF0.2548
aF0.265
aF0.253
aF0.2757
aF0.2574
aF0.2565
aF0.26
aF0.2722
aF0.2559
aF0.2656
aF0.2501
aF0.2516
aF0.2712
aF0.2821
aF0.2592
aF0.2569
aF0.2611
aF0.273
aF0.2706
aF0.2477
aF0.266
aF0.2538
aF0.2662
aF0.2638
aF0.2572
aF0.2562
aF0.2534
aF0.2667
aF0.2685
aF0.2519
aF0.263
aF0.2418
aF0.2656
aF0.259
aF0.2481
aF0.2552
aF0.2485
aF0.2665
aF0.2618
aF0.2433
aF0.2554
aF0.252
aF0.2621
aF0.268
aF0.2439
aF0.2505
aF0.2444
aF0.2593
aF0.2593
aF0.2464
aF0.2547
aF0.2516
aF0.2619
aF0.257
aF0.24
aF0.2517
aF0.2435
aF0.2579
aF0.2449
aF0.2433
aF0.2525
aF0.2421
aF0.255
aF0.2544
aF0.2456
aF0.2465
aF0.2438
aF0.2479
aF0.2552
aF0.2477
aF0.2452
aF0.2428
aF0.2538
aF0.252
aF0.248
aF0.2503
aF0.2403
aF0.2529
aF0.2512
aF0.239
aF0.2442
aF0.235
aF0.2569
aF0.2558
aF0.2402
aF0.2479
aF0.2421
aF0.244
aF0.2451
aF0.2447
aF0.2428
aF0.2353
aF0.2455
aF0.2429
aF0.2321
aF0.2415
aF0.2354
aF0.2481
aF0.2452
aF0.2359
aF0.2455
aF0.2373
aF0.2413
aF0.2397
aF0.2396
aF0.2444
aF0.2324
aF0.2452
aF0.2459
aF0.2394
aF0.2403
aF0.232
aF0.2431
aF0.2428
aF0.2305
aF0.2358
aF0.2325
aF0.243
aF0.2388
aF0.2377
aF0.2362
aF0.2387
aF0.2425
aF0.2356
aF0.2321
aF0.24
aF0.2319
aF0.2489
aF0.2409
aF0.2353
aF0.2381
aF0.231
aF0.2384
aF0.2312
aF0.2283
aF0.2352
aF0.2262
aF0.243
aF0.2341
aF0.2333
aF0.2299
aF0.2298
aF0.2429
aF0.2249
aF0.2341
aF0.231
aF0.2298
aF0.2414
aF0.2388
aF0.2279
aF0.2276
aF0.2261
aF0.244
aF0.2375
aF0.2263
aF0.2329
aF0.2223
aF0.2328
aF0.2341
aF0.2352
aF0.2349
aF0.227
aF0.2375
aF0.2347
aF0.2278
aF0.2368
aF0.2314
aF0.2382
aF0.2311
aF0.2279
aF0.2297
aF0.2263
aF0.2367
aF0.234
aF0.2349
aF0.2281
aF0.2235
aF0.2378
aF0.2246
aF0.2273
aF0.2371
aF0.2251
aF0.2342
aF0.2284
aF0.2251
aF0.2268
aF0.2235
aF0.237
aF0.2237
aF0.2214
aF0.234
aF0.2238
aF0.2339
aF0.2267
aF0.2271
aF0.2247
aF0.2254
aF0.2366
aF0.2298
aF0.229
aF0.2357
aF0.2251
aF0.2364
aF0.2284
aF0.2196
aF0.2306
aF0.2193
aF0.2326
aF0.2258
aF0.2173
aF0.2303
aF0.2314
aF0.2324
aF0.2263
aF0.2158
aF0.2234
aF0.2185
aF0.2263
aF0.2233
aF0.2175
aF0.2362
aF0.2237
aF0.2316
aF0.224
aF0.2145
aF0.2315
aF0.2231
aF0.2358
aF0.2215
aF0.2164
aF0.2265
aF0.2227
aF0.2354
aF0.2227
aF0.2229
aF0.2295
aF0.2187
aF0.2285
aF0.2179
aF0.2109
aF0.2246
aF0.2179
aF0.2219
aF0.2282
aF0.2192
aF0.2281
aF0.2205
aF0.226
aF0.218
aF0.2222
aF0.2235
aF0.2099
aF0.2274
aF0.2161
aF0.2166
aF0.2214
aF0.2157
aF0.2265
aF0.2139
aF0.2181
aF0.2281
aF0.2168
aF0.2269
aF0.2222
aF0.2237
aF0.2158
aF0.2165
aF0.2282
aF0.2174
aF0.2127
aF0.2184
aF0.2141
aF0.2252
aF0.2258
aF0.2123
aF0.2166
aF0.2141
aF0.2235
aF0.2105
aF0.219
aF0.2217
aF0.2106
aF0.2174
aF0.2176
aF0.2173
aF0.2153
aF0.2101
aF0.2208
aF0.2195
aF0.2178
aF0.2158
aF0.2141
aF0.2269
aF0.2171
aF0.2179
aF0.2122
aF0.2146
aF0.2218
aF0.2201
aF0.2162
aF0.2212
aF0.2235
aF0.2231
aF0.2173
aF0.2155
aF0.2162
aF0.2124
aF0.2227
aF0.211
aF0.2217
aF0.2181
aF0.2145
aF0.2153
aF0.2145
aF0.2119
aF0.2145
aF0.2102
aF0.2233
aF0.2159
aF0.2214
aF0.2165
aF0.2168
aF0.2201
aF0.2112
aF0.215
aF0.2133
aF0.2105
aF0.2184
aF0.2153
aF0.2094
aF0.2236
aF0.2105
aF0.2234
aF0.214
aF0.2094
aF0.216
aF0.2043
aF0.2147
aF0.2168
aF0.2172
aF0.1948
aF0.1882
aF0.1933
aF0.1805
aF0.1903
aF0.1867
aF0.1831
aF0.1901
aF0.1757
aF0.1809
aF0.1871
aF0.1809
aF0.1906
aF0.1817
aF0.1816
aF0.1839
aF0.1783
aF0.189
aF0.1772
aF0.1776
aF0.1798
aF0.1743
aF0.1827
aF0.1761
aF0.1849
aF0.1866
aF0.179
aF0.1809
aF0.1802
aF0.185
aF0.1827
aF0.1784
aF0.1884
aF0.1832
aF0.181
aF0.1866
aF0.1787
aF0.1848
aF0.1788
aF0.1764
aF0.1803
aF0.1756
aF0.1843
aF0.1815
aF0.1765
aF0.1777
aF0.1794
aF0.1856
aF0.1802
aF0.1787
aF0.1838
aF0.1746
aF0.1868
aF0.181
aF0.1741
aF0.1805
aF0.1799
aF0.1879
aF0.179
aF0.1803
aF0.1851
aF0.1765
aF0.1852
aF0.18
aF0.1741
aF0.1775
aF0.1748
aF0.1886
aF0.183
aF0.1777
aF0.1858
aF0.1793
aF0.1866
aF0.1835
aF0.1789
aF0.1818
aF0.1765
aF0.1846
aF0.181
aF0.1795
aF0.1794
aF0.1719
aF0.1909
aF0.1804
aF0.1786
aF0.1793
aF0.177
aF0.1873
aF0.182
aF0.1751
aF0.1809
aF0.1776
aF0.1862
aF0.1774
aF0.1772
aF0.1845
aF0.1799
aF0.1856
aF0.1863
aF0.1773
aF0.1797
aF0.1755
aF0.1835
aF0.1835
aF0.1725
aF0.1855
aF0.1779
aF0.1862
aF0.1809
aF0.175
aF0.1845
aF0.1777
aF0.1881
aF0.183
aF0.1746
aF0.1881
aF0.1737
aF0.1885
aF0.1825
aF0.177
aF0.1846
aF0.1732
aF0.1885
aF0.1776
aF0.1777
aF0.1816
aF0.1769
aF0.186
aF0.1824
aF0.1788
aF0.1824
aF0.1754
aF0.1863
aF0.1791
aF0.1756
aF0.1807
aF0.1827
aF0.1875
aF0.1814
aF0.1809
aF0.1835
aF0.1792
aF0.1878
aF0.1824
aF0.1789
aF0.1816
aF0.1814
aF0.1863
aF0.1806
aF0.1799
aF0.184
aF0.1737
aF0.1917
aF0.1782
aF0.1808
aF0.1821
aF0.1814
aF0.1885
aF0.1792
aF0.1779
aF0.1852
aF0.1765
aF0.1864
aF0.182
aF0.1835
aF0.1836
aF0.1764
aF0.187
aF0.1813
aF0.1791
aF0.1853
aF0.1773
aF0.1903
aF0.1812
aF0.1729
aF0.1857
aF0.177
aF0.1879
aF0.1773
aF0.1777
aF0.1818
aF0.1766
aF0.1907
aF0.177
aF0.1775
aF0.1814
aF0.1786
aF0.1895
aF0.1817
aF0.1792
aF0.1861
aF0.1809
aF0.1857
aF0.1832
aF0.178
aF0.1784
aF0.1793
aF0.1894
aF0.18
aF0.1789
aF0.1824
aF0.1775
aF0.1837
aF0.1833
aF0.18
aF0.1799
aF0.1753
aF0.1863
aF0.1829
aF0.1745
aF0.186
aF0.1843
aF0.1903
aF0.1833
aF0.1774
aF0.1827
aF0.1742
aF0.1906
aF0.184
aF0.1797
aF0.1827
aF0.1807
aF0.1856
aF0.1773
aF0.1833
aF0.1785
aF0.1804
aF0.188
aF0.1809
aF0.1778
aF0.1858
aF0.1731
aF0.1891
aF0.1775
aF0.1764
aF0.1834
aF0.1789
aF0.1903
aF0.1783
aF0.1808
aF0.1825
aF0.1786
aF0.183
aF0.1835
aF0.1804
aF0.1862
aF0.1795
aF0.1866
aF0.183
aF0.1851
aF0.1808
aF0.1809
aF0.1912
aF0.1862
aF0.1794
aF0.1793
aF0.1751
aF0.1847
aF0.1793
aF0.1826
aF0.184
aF0.1818
aF0.1904
aF0.1811
aF0.1791
aF0.1868
aF0.1813
aF0.1926
aF0.1792
aF0.1792
aF0.1855
aF0.1807
aF0.1863
aF0.1798
aF0.1762
aF0.1875
aF0.1751
aF0.1909
aF0.1817
aF0.1754
aF0.1832
aF0.1781
aF0.1889
aF0.1795
aF0.1781
aF0.1837
aF0.1769
aF0.1845
aF0.1758
aF0.1778
aF0.1839
aF0.1802
aF0.1868
aF0.1861
aF0.178
aF0.1809
aF0.1759
aF0.1896
aF0.1799
aF0.1737
aF0.1839
aF0.1811
aF0.1873
aF0.1814
aF0.1803
aF0.1855
aF0.1826
aF0.187
aF0.1877
aF0.1808
aF0.1804
aF0.1804
aF0.1863
aF0.1836
aF0.1752
aF0.1811
aF0.1809
aF0.1884
aF0.1845
aF0.1806
aF0.1849
aF0.1766
aF0.1882
aF0.1751
aF0.1835
aF0.1823
aF0.1748
aF0.1864
aF0.1782
aF0.1786
aF0.1857
aF0.1828
aF0.1843
aF0.1863
aF0.1761
aF0.1834
aF0.1723
aF0.1829
aF0.1833
aF0.1733
aF0.1843
aF0.1813
aF0.1894
aF0.1779
aF0.1813
aF0.1838
aF0.176
aF0.1881
aF0.1825
aF0.1838
aF0.1854
aF0.1795
aF0.1889
aF0.1796
aF0.1816
aF0.1899
aF0.1843
aF0.1875
aF0.1767
aF0.1772
aF0.1823
aF0.1781
aF0.1841
aF0.1804
aF0.1762
aF0.1849
aF0.1827
aF0.1845
aF0.1782
aF0.1784
aF0.1835
aF0.1822
aF0.1832
aF0.1759
aF0.1782
aF0.1859
aF0.1807
aF0.1872
aF0.1819
aF0.1759
aF0.1861
aF0.1775
aF0.1875
aF0.1777
aF0.173
aF0.18635
aF0.1819
aF0.1871
aF0.1751
aF0.1803
aF0.1863
aF0.1751
aF0.1825
aF0.1802
aF0.1757
aF0.1837
aF0.1765
aF0.1929
aF0.183
aF0.1773
aF0.184
aF0.1808
aF0.1863
aF0.1807
aF0.1818
aF0.181
aF0.1767
aF0.1928
aF0.1789
aF0.1764
aF0.18
aF0.1766
aF0.1865
aF0.1814
aF0.1823
aF0.183
aF0.1767
aF0.1862
aF0.1801
aF0.1766
aF0.186
aF0.1733
aF0.1897
aF0.1829
aF0.1787
aF0.1815
aF0.1764
aF0.1826
aF0.1788
aF0.1751
aF0.1834
aF0.179
aF0.1869
aF0.1774
aF0.1774
aF0.1834
aF0.1792
aF0.1851
aF0.1808
aF0.1812
aF0.1881
aF0.1777
aF0.1882
aF0.1816
aF0.1785
aF0.1889
aF0.1814
aF0.1858
aF0.1833
aF0.1828
aF0.183
aF0.1781
aF0.1887
aF0.1791
aF0.1796
aF0.1829
aF0.1829
aF0.1851
aF0.1798
aF0.1819
aF0.1799
aF0.1794
aF0.1898
aF0.1786
aF0.1772
aF0.1852
aF0.1791
aF0.1865
aF0.1796
aF0.1785
aF0.1829
aF0.175
aF0.1859
aF0.1814
aF0.1762
aF0.1845
aF0.1734
aF0.187
aF0.1828
aF0.1786
aF0.183
aF0.1766
aF0.1854
aF0.1832
aF0.1778
aF0.1802
aF0.1748
aF0.1909
aF0.1793
aF0.1794
aF0.1844
aF0.1783
aF0.1908
aF0.178
aF0.1771
aF0.1826
aF0.18
aF0.1886
aF0.1772
a.