(lp0
F0.8739
aF0.7628
aF0.7055
aF0.6584
aF0.6181
aF0.5857
aF0.5519
aF0.5278
aF0.5001
aF0.4823
aF0.4657
aF0.4364
aF0.4235
aF0.4015
aF0.379
aF0.3721
aF0.366
aF0.3938
aF0.3541
aF0.3682
aF0.3445
aF0.3587
aF0.329
aF0.3341
aF0.3143
aF0.3199
aF0.3101
aF0.3091
aF0.292
aF0.3063
aF0.2861
aF0.3149
aF0.3239
aF0.2815
aF0.2811
aF0.2982
aF0.2805
aF0.2763
aF0.2815
aF0.2748
aF0.2779
aF0.2696
aF0.2717
aF0.2777
aF0.2703
aF0.2666
aF0.2704
aF0.2731
aF0.2596
aF0.2502
aF0.2569
aF0.2505
aF0.2493
aF0.2514
aF0.2496
aF0.2398
aF0.2473
aF0.2462
aF0.2358
aF0.2429
aF0.2351
aF0.2574
aF0.2506
aF0.2394
aF0.2373
aF0.2378
aF0.225
aF0.2347
aF0.2289
aF0.2189
aF0.2314
aF0.228
aF0.2147
aF0.2265
aF0.226
aF0.2145
aF0.2072
aF0.2327
aF0.2196
aF0.2569
aF0.2134
aF0.2182
aF0.2175
aF0.2428
aF0.2081
a.