(lp0
F0.8243
aF0.7254
aF0.6658
aF0.6219
aF0.6047
aF0.5794
aF0.5627
aF0.5516
aF0.5442
aF0.5139
aF0.5137
aF0.5006
aF0.4926
aF0.4863
aF0.4707
aF0.4558
aF0.4554
aF0.4737
aF0.4479
aF0.4653
aF0.4195
aF0.4525
aF0.4244
aF0.4376
aF0.4099
aF0.4158
aF0.4067
aF0.4118
aF0.4046
aF0.4151
aF0.3866
aF0.3961
aF0.3977
aF0.3812
aF0.3865
aF0.3913
aF0.3744
aF0.3762
aF0.3764
aF0.3728
aF0.3714
aF0.364
aF0.3684
aF0.3655
aF0.3676
aF0.361
aF0.3562
aF0.3567
aF0.3472
aF0.3547
aF0.3582
aF0.3422
aF0.3472
aF0.3473
aF0.3408
aF0.3495
aF0.3352
aF0.339
aF0.3385
aF0.3401
aF0.3263
aF0.3363
aF0.3243
aF0.3211
aF0.327
aF0.3279
aF0.3201
aF0.3259
aF0.324
aF0.3222
aF0.33
aF0.3276
aF0.31
aF0.3242
aF0.3117
aF0.3078
aF0.3096
aF0.3286
aF0.3156
aF0.3316
aF0.3028
aF0.3126
aF0.3033
aF0.3246
aF0.3063
aF0.3074
aF0.2997
aF0.3177
aF0.3015
aF0.302
aF0.2944
aF0.3179
aF0.3003
aF0.3063
aF0.2919
aF0.3089
aF0.2955
aF0.299
aF0.2866
aF0.3046
aF0.295
aF0.2968
aF0.2907
aF0.3043
aF0.2935
aF0.2979
aF0.2887
aF0.3011
aF0.2862
aF0.2856
aF0.2886
aF0.3041
aF0.2886
aF0.2877
aF0.2795
aF0.2924
aF0.2835
aF0.2883
aF0.2798
aF0.2892
aF0.2847
aF0.2846
aF0.2768
aF0.2882
aF0.2887
aF0.2754
aF0.2769
aF0.2951
aF0.2792
aF0.2757
aF0.2763
aF0.2832
aF0.2782
aF0.2758
aF0.2729
aF0.2836
aF0.2688
aF0.2765
aF0.2708
aF0.2786
aF0.2737
aF0.2742
aF0.2687
aF0.2771
aF0.2721
aF0.2727
aF0.27
aF0.2754
aF0.2627
aF0.2717
aF0.2659
aF0.277
aF0.2655
aF0.2697
aF0.2623
aF0.2778
aF0.2588
aF0.258
aF0.2643
aF0.2727
aF0.26
aF0.2676
aF0.26
aF0.2728
aF0.2646
aF0.2611
aF0.259
aF0.2638
aF0.2747
aF0.2823
aF0.2646
aF0.259
aF0.2564
aF0.2641
aF0.2748
aF0.2581
aF0.2646
aF0.2501
aF0.2622
aF0.2689
aF0.2591
aF0.254
aF0.2536
aF0.2645
aF0.272
aF0.26
aF0.2574
aF0.2512
aF0.2665
aF0.2659
aF0.2564
aF0.2442
aF0.2571
aF0.2594
aF0.2669
aF0.25
aF0.2483
aF0.2565
aF0.262
aF0.2628
aF0.2514
aF0.2503
aF0.2472
aF0.262
aF0.2598
aF0.2444
aF0.2561
aF0.2449
aF0.2601
aF0.2599
aF0.2429
aF0.2501
aF0.2467
aF0.2557
aF0.2585
aF0.2483
aF0.241
aF0.2424
aF0.2521
aF0.2507
aF0.2456
aF0.2448
aF0.2397
aF0.2472
aF0.2552
aF0.24
aF0.2515
aF0.2407
aF0.2493
aF0.2491
aF0.2413
aF0.2477
aF0.235
aF0.2485
aF0.2527
aF0.2444
aF0.2434
aF0.2329
aF0.2504
aF0.2484
aF0.2375
aF0.2452
aF0.2424
aF0.2468
aF0.2452
aF0.2437
aF0.2487
aF0.2378
aF0.247
aF0.2458
aF0.2341
aF0.245
aF0.2403
aF0.2431
aF0.2401
aF0.2339
aF0.2367
aF0.2378
aF0.2417
aF0.2408
aF0.241
aF0.2435
aF0.2344
aF0.2423
aF0.2409
aF0.2327
aF0.2401
aF0.2347
aF0.2445
aF0.241
aF0.2324
aF0.2368
aF0.2243
aF0.2434
aF0.247
aF0.233
aF0.2352
aF0.2308
aF0.2374
aF0.239
aF0.2284
aF0.2382
aF0.2365
aF0.2377
aF0.2368
aF0.235
aF0.2349
aF0.228
aF0.2423
aF0.2379
aF0.2323
aF0.2329
aF0.2341
aF0.2497
aF0.235
aF0.2352
aF0.2401
aF0.2359
aF0.2416
aF0.2316
aF0.2301
aF0.2317
aF0.2271
aF0.2429
aF0.2353
aF0.2319
aF0.2387
aF0.2266
aF0.2362
aF0.2367
aF0.2324
aF0.2342
aF0.2263
aF0.2309
aF0.2316
aF0.2361
aF0.2338
aF0.2229
aF0.2365
aF0.234
aF0.2247
aF0.238
aF0.229
aF0.2329
aF0.2314
aF0.2275
aF0.2323
aF0.2248
aF0.2307
aF0.232
aF0.2225
aF0.2314
aF0.2255
aF0.2329
aF0.2295
aF0.2242
aF0.2318
aF0.2209
aF0.2337
aF0.2245
aF0.2276
aF0.2278
aF0.2235
aF0.2385
aF0.2277
aF0.2309
aF0.239
aF0.2305
aF0.2263
aF0.2288
aF0.2254
aF0.2258
aF0.219
aF0.2345
aF0.2235
aF0.2229
aF0.2289
aF0.2232
aF0.2356
aF0.2281
aF0.2189
aF0.2305
aF0.2185
aF0.2348
aF0.2299
aF0.2228
aF0.2255
aF0.2246
aF0.2291
aF0.2213
aF0.2193
aF0.2267
aF0.2222
aF0.2357
aF0.2238
aF0.2285
aF0.2318
aF0.2152
aF0.2314
aF0.2165
aF0.221
aF0.2191
aF0.2187
aF0.2295
aF0.2203
aF0.2242
aF0.224
aF0.2239
aF0.2237
aF0.2275
aF0.2329
aF0.2258
aF0.22
aF0.224
aF0.2153
aF0.2273
aF0.2248
aF0.2125
aF0.2263
aF0.222
aF0.2175
aF0.2289
aF0.2166
aF0.2258
aF0.2246
aF0.2238
aF0.221
aF0.216
aF0.2246
aF0.2202
aF0.2113
aF0.2253
aF0.2205
aF0.2219
aF0.2224
aF0.218
aF0.2203
aF0.2179
aF0.2263
aF0.2172
aF0.2168
aF0.2151
aF0.221
aF0.2194
aF0.2144
aF0.2165
aF0.2295
aF0.2146
aF0.2245
aF0.2272
aF0.2203
aF0.2204
aF0.2134
aF0.2302
aF0.2153
aF0.2177
aF0.2225
aF0.2199
aF0.2181
aF0.2205
aF0.2241
aF0.2153
aF0.2111
aF0.2292
aF0.221
aF0.2158
aF0.2165
aF0.2155
aF0.2276
aF0.2183
aF0.21
aF0.2188
aF0.2141
aF0.2211
aF0.2253
aF0.2168
aF0.2166
aF0.2097
aF0.2192
aF0.2129
aF0.2143
aF0.2212
aF0.2117
aF0.2223
aF0.2163
aF0.2195
aF0.218
aF0.211
aF0.2238
aF0.2152
aF0.2155
aF0.2192
aF0.2101
aF0.2235
aF0.2146
aF0.21325
aF0.2103
aF0.2092
aF0.2225
aF0.2178
aF0.2119
aF0.2143
aF0.2111
aF0.2153
aF0.2148
aF0.2099
aF0.2199
aF0.2082
aF0.2192
aF0.2112
aF0.2129
aF0.2087
aF0.2089
aF0.2143
aF0.2192
aF0.2131
aF0.2157
aF0.2078
aF0.2186
aF0.2125
aF0.2132
aF0.2128
aF0.2065
aF0.2177
aF0.2148
aF0.2131
aF0.2159
aF0.2068
aF0.2214
aF0.2066
aF0.2149
aF0.2138
aF0.2142
aF0.2172
aF0.2153
aF0.2126
aF0.2122
aF0.2077
aF0.2205
aF0.2141
aF0.2072
aF0.2214
aF0.2097
aF0.2163
aF0.2126
aF0.2061
aF0.2148
aF0.2083
aF0.2217
aF0.2136
aF0.2039
aF0.2149
aF0.2077
aF0.2217
aF0.2098
aF0.2138
aF0.2147
aF0.209
aF0.2173
aF0.204
aF0.2123
aF0.2092
aF0.209
aF0.2143
aF0.2143
aF0.2072
aF0.2113
aF0.2044
aF0.216
aF0.2121
aF0.2082
aF0.2164
aF0.2043
aF0.2095
aF0.2109
aF0.2097
aF0.2167
aF0.2133
aF0.2096
aF0.2095
aF0.2031
aF0.2114
aF0.2075
aF0.2222
aF0.2089
aF0.2067
aF0.2112
aF0.2115
aF0.2137
aF0.2116
aF0.2131
aF0.208
aF0.2079
aF0.2123
aF0.2095
aF0.2036
aF0.2119
aF0.2088
aF0.2156
aF0.2128
aF0.2054
aF0.211
aF0.2112
aF0.2156
aF0.217
aF0.2059
aF0.2092
aF0.2039
aF0.2098
aF0.2026
aF0.2088
aF0.2132
aF0.2107
aF0.2207
aF0.2134
aF0.2064
aF0.2117
aF0.2052
aF0.2107
aF0.2046
aF0.2049
aF0.2108
aF0.2037
aF0.2096
aF0.213
aF0.2073
aF0.2121
aF0.2063
aF0.2172
aF0.2054
aF0.2093
aF0.2088
aF0.2086
aF0.2089
aF0.2027
aF0.2049
aF0.21
aF0.2046
aF0.211
aF0.2076
aF0.2027
aF0.2113
aF0.2038
aF0.2094
aF0.2005
aF0.2043
aF0.2084
aF0.2026
aF0.2139
aF0.1987
aF0.2021
aF0.2042
aF0.2002
aF0.2154
aF0.199
aF0.204
aF0.2056
aF0.2031
aF0.2139
aF0.2046
aF0.2091
aF0.2088
aF0.2061
aF0.211
aF0.2058
aF0.2081
aF0.2059
aF0.2013
aF0.2149
aF0.2048
aF0.2039
aF0.2053
aF0.2011
aF0.2065
aF0.2104
aF0.2027
aF0.2182
aF0.2046
aF0.2109
aF0.2025
aF0.2086
aF0.2128
aF0.2025
aF0.2089
aF0.2043
aF0.202
aF0.2057
aF0.2012
aF0.2152
aF0.2077
aF0.2028
aF0.2031
aF0.2093
aF0.2085
aF0.2047
aF0.2133
aF0.2103
aF0.2046
aF0.2112
aF0.2018
aF0.2038
aF0.2116
aF0.2024
aF0.2065
aF0.2048
aF0.2046
aF0.2113
aF0.2026
aF0.2055
aF0.2
aF0.2042
aF0.2109
aF0.2047
aF0.2154
aF0.2006
aF0.1958
aF0.2017
aF0.202
aF0.2121
aF0.2032
aF0.2006
aF0.2108
aF0.2029
aF0.2126
aF0.196
aF0.1956
aF0.2043
aF0.1947
aF0.2094
aF0.1986
aF0.2057
aF0.2001
aF0.2039
aF0.2141
aF0.2045
aF0.1987
aF0.2074
aF0.2072
aF0.2053
aF0.202
aF0.2059
aF0.2026
aF0.1966
aF0.2056
aF0.1978
aF0.2042
aF0.2044
aF0.2055
aF0.2087
aF0.1919
aF0.2075
aF0.2068
aF0.1999
aF0.2034
aF0.2021
aF0.1935
aF0.204
aF0.2007
aF0.2095
aF0.2039
aF0.1976
aF0.2068
aF0.2029
aF0.2047
aF0.2002
aF0.2032
aF0.2015
aF0.1993
aF0.2113
aF0.2054
aF0.2001
aF0.203
aF0.2019
aF0.2046
aF0.2023
aF0.2002
aF0.2016
aF0.1965
aF0.2111
aF0.1964
aF0.205
aF0.2028
aF0.2039
aF0.2079
aF0.1998
aF0.203
aF0.2094
aF0.1977
aF0.2128
aF0.1987
aF0.1979
aF0.2121
aF0.1975
aF0.2111
aF0.2023
aF0.2
aF0.205
aF0.2026
aF0.2107
aF0.2007
aF0.1967
aF0.2025
aF0.1989
aF0.208
aF0.205
aF0.1982
aF0.2069
aF0.1976
aF0.2139
aF0.193
aF0.2036
aF0.2014
aF0.2058
aF0.2112
aF0.2029
aF0.2025
aF0.2015
aF0.1963
aF0.2071
aF0.1909
aF0.1984
aF0.2024
aF0.2013
aF0.2178
aF0.1947
aF0.1963
aF0.203
aF0.2034
aF0.2007
aF0.1953
aF0.1943
aF0.2035
aF0.1976
aF0.2082
aF0.1994
aF0.1986
aF0.1992
aF0.1956
aF0.2122
aF0.1952
aF0.1994
aF0.2056
aF0.1962
aF0.2012
aF0.2041
aF0.1966
aF0.1975
aF0.2024
aF0.2024
aF0.1951
aF0.1985
aF0.2052
aF0.2
aF0.2011
aF0.1964
aF0.2017
aF0.2024
aF0.1982
aF0.2104
aF0.195
aF0.1956
aF0.197
aF0.2007
aF0.2057
aF0.1994
aF0.1977
aF0.2031
aF0.2028
aF0.1993
aF0.1913
aF0.2059
aF0.2008
aF0.1981
aF0.2082
aF0.1975
aF0.1974
aF0.2059
aF0.2005
aF0.1997
aF0.2046
aF0.194
aF0.1987
aF0.1955
aF0.2071
aF0.1983
aF0.1949
aF0.2077
aF0.1983
aF0.206
aF0.1988
aF0.1913
aF0.2009
aF0.1952
aF0.2075
aF0.196
aF0.2008
aF0.1977
aF0.1949
aF0.206
aF0.1959
aF0.1861
aF0.1948
aF0.2036
aF0.2076
aF0.2007
aF0.1967
aF0.1946
aF0.2009
aF0.2021
aF0.199
aF0.1935
aF0.2029
aF0.1988
aF0.1965
aF0.1938
aF0.1964
aF0.2034
aF0.1959
aF0.2033
aF0.1974
aF0.2008
aF0.1971
aF0.1951
aF0.1993
aF0.1966
aF0.1975
aF0.1988
aF0.2044
aF0.2029
aF0.2018
aF0.1918
aF0.2045
aF0.1967
aF0.2094
aF0.1981
aF0.2009
aF0.2006
aF0.1948
aF0.2014
aF0.1982
aF0.1959
aF0.2033
aF0.1933
aF0.2041
aF0.1952
aF0.1928
aF0.2006
aF0.1953
aF0.1989
aF0.1987
aF0.2001
aF0.1932
aF0.1917
aF0.1986
aF0.1953
aF0.1938
aF0.2013
aF0.1938
aF0.2024
aF0.1908
aF0.1917
aF0.198
aF0.1921
aF0.1992
aF0.1929
aF0.1982
aF0.1973
aF0.1951
aF0.2077
aF0.1996
aF0.1991
aF0.1972
aF0.1878
aF0.2039
aF0.1996
aF0.195
aF0.1935
aF0.1943
aF0.1971
aF0.1938
aF0.1986
aF0.2043
aF0.1976
aF0.207
aF0.1902
aF0.1893
aF0.2015
aF0.1968
aF0.2022
aF0.1962
aF0.1913
aF0.1968
aF0.1911
aF0.2127
aF0.1958
aF0.2003
aF0.1981
aF0.195
aF0.2048
aF0.1878
aF0.1914
aF0.1963
aF0.1935
aF0.2005
aF0.196
aF0.1898
aF0.1978
aF0.1904
aF0.2009
aF0.1938
aF0.1996
aF0.2003
aF0.1926
aF0.2007
aF0.194
aF0.1878
aF0.2025
aF0.1924
aF0.202
aF0.1976
aF0.1976
aF0.1959
aF0.1944
aF0.206
aF0.1923
aF0.1945
aF0.2051
aF0.1972
aF0.2006
aF0.1998
aF0.1979
aF0.197
aF0.1913
aF0.2041
aF0.1927
aF0.1908
aF0.1982
aF0.1915
aF0.2029
aF0.1932
aF0.1922
aF0.2003
aF0.194
aF0.2018
aF0.191
aF0.1912
aF0.1933
aF0.1888
aF0.2033
aF0.1933
aF0.1907
aF0.1949
aF0.1968
aF0.1982
aF0.196
aF0.196
aF0.1957
aF0.1914
aF0.2037
aF0.1947
aF0.1938
aF0.1956
aF0.1939
aF0.2093
aF0.197
aF0.1867
aF0.1959
aF0.1987
aF0.1996
aF0.1911
aF0.191
aF0.1913
aF0.1928
aF0.2024
aF0.1979
aF0.1877
aF0.201
aF0.1898
aF0.2038
aF0.1902
aF0.1951
aF0.2017
aF0.197
aF0.1942
aF0.1932
aF0.199
aF0.1966
aF0.1899
aF0.1965
aF0.1957
aF0.1962
aF0.2003
aF0.1902
aF0.204
aF0.1961
aF0.1887
aF0.1937
aF0.196
aF0.1983
aF0.1887
aF0.1929
aF0.2038
aF0.1936
aF0.199
aF0.1927
aF0.1975
aF0.196
aF0.188
aF0.2001
aF0.1976
aF0.1933
aF0.1956
aF0.1895
aF0.2008
aF0.1986
aF0.1905
aF0.1972
aF0.1982
aF0.1961
aF0.1957
aF0.1959
aF0.1984
aF0.1922
aF0.2007
aF0.1879
aF0.1903
aF0.1948
aF0.1838
aF0.1989
aF0.1833
aF0.1912
aF0.1939
aF0.195
aF0.2042
aF0.1865
aF0.1944
aF0.188
aF0.1941
aF0.1976
aF0.1924
aF0.1884
aF0.1972
aF0.189
aF0.2007
aF0.1915
aF0.1952
aF0.1944
aF0.1984
aF0.1969
aF0.1941
aF0.2013
aF0.1954
aF0.1955
aF0.1999
aF0.1894
aF0.1923
aF0.1967
aF0.1906
aF0.1929
aF0.1921
aF0.1881
aF0.1974
aF0.1848
aF0.2091
aF0.1864
aF0.1904
aF0.2025
aF0.1921
aF0.2018
aF0.1895
aF0.1894
aF0.2014
aF0.1912
aF0.1968
aF0.1906
aF0.1929
aF0.1981
aF0.1889
aF0.2022
aF0.1891
aF0.1888
aF0.1972
aF0.1916
aF0.2019
aF0.1867
aF0.194
aF0.1941
aF0.1909
aF0.2027
aF0.1923
aF0.1924
aF0.1934
aF0.1852
aF0.2014
aF0.1906
aF0.1917
aF0.1962
aF0.1971
aF0.1935
aF0.1931
aF0.1938
aF0.1937
aF0.1909
aF0.1957
aF0.1884
aF0.1913
aF0.1962
aF0.1934
aF0.1932
aF0.192
aF0.1886
aF0.191
aF0.1917
aF0.2012
aF0.1939
aF0.1879
aF0.1925
aF0.1902
aF0.1966
aF0.1841
aF0.2066
aF0.198
aF0.1882
aF0.1936
aF0.1938
aF0.1901
aF0.1954
aF0.1843
aF0.2048
aF0.1923
aF0.1867
aF0.1938
aF0.1881
aF0.2003
aF0.1917
aF0.1921
aF0.1924
aF0.1896
aF0.1942
aF0.1892
aF0.1961
aF0.1974
aF0.1896
aF0.1942
aF0.1853
aF0.1918
aF0.1985
aF0.1849
aF0.2008
aF0.1883
aF0.1954
aF0.1915
aF0.1894
aF0.1994
aF0.1895
aF0.1867
aF0.1924
aF0.1965
aF0.1932
aF0.1912
aF0.1943
aF0.1963
aF0.1876
aF0.1969
aF0.1854
aF0.1913
aF0.1933
aF0.1835
aF0.1978
aF0.1883
aF0.1874
aF0.2002
aF0.1915
aF0.1891
aF0.1956
aF0.1925
aF0.1954
aF0.1872
aF0.1928
aF0.1822
aF0.1864
aF0.1916
aF0.1888
aF0.1981
aF0.1867
aF0.1872
aF0.1951
aF0.1881
aF0.198
aF0.1901
aF0.1963
aF0.1957
aF0.1853
aF0.2028
aF0.1896
aF0.1881
aF0.1991
aF0.1893
aF0.2005
aF0.1868
aF0.1932
aF0.1875
aF0.1933
aF0.1959
aF0.1947
aF0.1908
aF0.1908
aF0.1893
aF0.1944
aF0.1888
aF0.1925
aF0.1925
aF0.1882
aF0.1948
aF0.1906
aF0.1879
aF0.197
aF0.1865
aF0.1846
aF0.1887
aF0.1875
aF0.193
aF0.1821
aF0.191
aF0.1969
aF0.1869
aF0.1964
aF0.1906
aF0.1935
aF0.1835
aF0.1889
aF0.1917
aF0.1829
aF0.1962
aF0.1938
aF0.1918
aF0.1974
aF0.1952
aF0.197
aF0.1883
aF0.1889
aF0.1893
aF0.1847
aF0.1994
aF0.1844
aF0.1924
aF0.1949
aF0.1963
aF0.1989
aF0.1883
aF0.1914
aF0.1966
aF0.1836
aF0.2003
aF0.188
aF0.1913
aF0.191
aF0.1823
aF0.1967
aF0.1895
aF0.1809
aF0.1921
aF0.1911
aF0.2
aF0.1883
aF0.1829
aF0.1933
aF0.1864
aF0.196
aF0.1847
aF0.1889
aF0.1914
aF0.1837
aF0.2002
aF0.1905
aF0.1897
aF0.1917
aF0.1932
aF0.1982
aF0.1848
aF0.1836
aF0.1925
aF0.1892
aF0.1947
aF0.1867
aF0.1836
aF0.1986
aF0.1896
aF0.1934
aF0.1808
aF0.188
aF0.1992
aF0.1911
aF0.1962
aF0.1862
aF0.1871
aF0.1957
aF0.1874
aF0.1958
aF0.1901
aF0.1951
aF0.1913
aF0.1875
aF0.2012
aF0.1897
aF0.1905
aF0.1913
aF0.1948
aF0.1989
aF0.186
aF0.1915
aF0.188
aF0.1864
aF0.1978
aF0.1908
aF0.1906
aF0.1971
aF0.1904
aF0.1924
aF0.1935
aF0.1825
aF0.1949
aF0.1919
aF0.1941
aF0.1916
aF0.189
aF0.1973
aF0.187
aF0.1933
aF0.1899
aF0.1911
aF0.2015
aF0.1842
aF0.197
aF0.1916
aF0.1851
aF0.1959
aF0.1875
aF0.1963
aF0.1886
aF0.1891
aF0.1973
aF0.1886
aF0.1917
aF0.1818
aF0.1812
aF0.1905
aF0.1886
aF0.1936
aF0.188
aF0.1868
aF0.1914
aF0.1904
aF0.1965
aF0.1904
aF0.1849
aF0.1861
aF0.1887
aF0.1968
aF0.1905
aF0.1872
aF0.191
aF0.1872
aF0.1948
aF0.1866
aF0.1862
aF0.1874
aF0.1893
aF0.1944
aF0.1917
aF0.1854
aF0.2006
aF0.1864
aF0.1949
aF0.1831
aF0.1887
aF0.1966
aF0.1812
aF0.1927
aF0.1816
aF0.1862
aF0.1902
aF0.1877
aF0.194
aF0.1905
aF0.1912
aF0.1902
aF0.1868
aF0.1965
aF0.1917
aF0.1886
aF0.1902
aF0.191
aF0.1944
aF0.1797
aF0.1834
aF0.1979
aF0.194
aF0.194
aF0.183
aF0.1807
aF0.1916
aF0.1868
aF0.1987
aF0.185
aF0.1827
aF0.1945
aF0.1881
aF0.1957
aF0.1877
aF0.1878
aF0.192
aF0.181
aF0.1967
aF0.1837
aF0.1869
aF0.19
aF0.1895
aF0.1944
aF0.1887
aF0.1856
aF0.1912
aF0.1893
aF0.1907
aF0.1847
aF0.1954
aF0.1913
aF0.1877
aF0.197
aF0.1868
aF0.1885
aF0.1925
aF0.187
aF0.1984
aF0.1889
aF0.1864
aF0.1939
aF0.1836
aF0.1962
aF0.1836
aF0.1852
aF0.1952
aF0.1863
aF0.1924
aF0.1886
aF0.1835
aF0.1932
aF0.1838
aF0.1938
aF0.1821
aF0.1889
aF0.1941
aF0.188
aF0.1978
aF0.1861
aF0.1947
aF0.1825
aF0.1867
aF0.1902
aF0.1883
aF0.1839
aF0.1956
aF0.1922
aF0.1931
aF0.1908
a.