(lp0
F0.8403
aF0.7442
aF0.7056
aF0.6781
aF0.6485
aF0.6383
aF0.6061
aF0.5869
aF0.5714
aF0.5501
aF0.5307
aF0.52
aF0.5106
aF0.4911
aF0.4864
aF0.4734
aF0.4648
aF0.4718
aF0.4468
aF0.4518
aF0.426
aF0.4342
aF0.4185
aF0.4197
aF0.3905
aF0.4102
aF0.3932
aF0.389
aF0.3853
aF0.3863
aF0.37
aF0.376
aF0.3747
aF0.3648
aF0.3613
aF0.3636
aF0.3497
aF0.3487
aF0.3447
aF0.3262
aF0.3544
aF0.3409
aF0.3318
aF0.3294
aF0.33
aF0.3129
aF0.3239
aF0.3186
aF0.3152
aF0.3157
aF0.3082
aF0.3054
aF0.3124
aF0.2942
aF0.3024
aF0.3035
aF0.2989
aF0.297
aF0.2965
aF0.2943
aF0.2951
aF0.2935
aF0.2827
aF0.2768
aF0.2847
aF0.2915
aF0.281
aF0.2813
aF0.2756
aF0.2773
aF0.2777
aF0.2636
aF0.2771
aF0.272
aF0.2591
aF0.2686
aF0.2547
aF0.2675
aF0.263
aF0.2954
aF0.2538
aF0.2603
aF0.258
aF0.2885
aF0.2595
aF0.2597
aF0.2425
aF0.2853
aF0.25
aF0.2539
aF0.2495
aF0.2689
aF0.2475
aF0.2475
aF0.2441
aF0.2707
aF0.2431
aF0.2523
aF0.252
aF0.2592
aF0.2402
aF0.246
aF0.2441
aF0.263
aF0.2354
aF0.2456
aF0.2298
aF0.2574
aF0.2331
aF0.2363
aF0.2297
aF0.2481
aF0.226
aF0.2295
aF0.2319
aF0.2496
aF0.2334
aF0.2316
aF0.2192
aF0.2482
aF0.2306
aF0.2326
aF0.2227
aF0.2463
aF0.2176
aF0.2353
aF0.2214
aF0.2369
aF0.2122
aF0.2238
aF0.2173
aF0.2328
aF0.2146
aF0.2159
aF0.2106
aF0.2361
aF0.217
aF0.2146
aF0.2175
aF0.2355
aF0.2165
aF0.2186
aF0.2053
aF0.231
aF0.2082
aF0.2051
aF0.2142
aF0.2246
aF0.2067
aF0.2131
aF0.2105
aF0.2264
aF0.2115
aF0.2109
aF0.2115
aF0.2166
aF0.2013
aF0.2132
aF0.1982
aF0.215
aF0.1986
aF0.2067
aF0.2021
aF0.2222
aF0.2019
aF0.208
aF0.2044
aF0.1982
aF0.2163
aF0.2367
aF0.2008
aF0.2034
aF0.1958
aF0.2084
aF0.2384
aF0.2018
aF0.2045
aF0.191
aF0.2089
aF0.231
aF0.1969
aF0.1939
aF0.1904
aF0.2084
aF0.2221
aF0.1997
aF0.1961
aF0.1936
aF0.2077
aF0.2207
aF0.1957
aF0.1925
aF0.1904
aF0.2081
aF0.2152
aF0.1984
aF0.1917
aF0.1902
aF0.1986
aF0.2168
aF0.1862
aF0.194
aF0.197
aF0.2015
aF0.2121
aF0.1929
aF0.1905
aF0.1807
aF0.198
aF0.2093
aF0.1897
aF0.191
aF0.1867
aF0.1936
aF0.2066
aF0.1846
aF0.1898
aF0.182
aF0.1978
aF0.1973
aF0.1861
aF0.1855
aF0.1859
aF0.1883
aF0.2014
aF0.1793
aF0.1862
aF0.1802
aF0.1949
aF0.1981
aF0.182
aF0.1805
aF0.1866
aF0.1861
aF0.1961
aF0.1892
aF0.1841
aF0.178
aF0.1882
aF0.1925
aF0.1792
aF0.1837
aF0.1745
aF0.1877
aF0.1915
aF0.1851
aF0.1779
aF0.1751
aF0.1919
aF0.1867
aF0.1772
aF0.1797
aF0.1763
aF0.1906
aF0.1897
aF0.1773
aF0.1784
aF0.1833
aF0.1865
aF0.1912
aF0.1742
aF0.1737
aF0.1779
aF0.1829
aF0.1873
aF0.1818
aF0.1848
aF0.1694
aF0.1907
aF0.1856
aF0.1696
aF0.1765
aF0.1703
aF0.187
aF0.1865
aF0.1696
aF0.1749
aF0.1721
aF0.189
aF0.1887
aF0.1764
aF0.1774
aF0.1688
aF0.1761
aF0.1858
aF0.1732
aF0.1789
aF0.1661
aF0.1827
aF0.1801
aF0.1712
aF0.1744
aF0.1636
aF0.1811
aF0.1798
aF0.1699
aF0.1689
aF0.165
aF0.173
aF0.1752
aF0.1655
aF0.1692
aF0.1654
aF0.1775
aF0.1767
aF0.1714
aF0.1689
aF0.1689
aF0.1781
aF0.1761
aF0.1652
aF0.1692
aF0.161
aF0.1721
aF0.1722
aF0.1671
aF0.1678
aF0.1644
aF0.1744
aF0.1723
aF0.1726
aF0.1675
aF0.1591
aF0.1664
aF0.1732
aF0.1638
aF0.165
aF0.159
aF0.1741
aF0.1746
aF0.1562
aF0.1683
aF0.1572
aF0.1674
aF0.1835
aF0.1673
aF0.1626
aF0.1586
aF0.1685
aF0.1728
aF0.1639
aF0.1688
aF0.1618
aF0.1646
aF0.1667
aF0.1656
aF0.1655
aF0.1561
aF0.1647
aF0.1598
aF0.1631
aF0.1596
aF0.1589
aF0.1695
aF0.1675
aF0.1688
aF0.1678
aF0.1532
aF0.163
aF0.1694
aF0.1623
aF0.1656
aF0.1637
aF0.1622
aF0.1661
aF0.1668
aF0.1593
aF0.1593
aF0.1637
aF0.1686
aF0.1617
aF0.1672
aF0.1585
aF0.166
aF0.1613
aF0.1642
aF0.1668
aF0.1563
aF0.1578
aF0.165
aF0.1616
aF0.1628
aF0.1563
aF0.1656
aF0.159
aF0.157
aF0.1617
aF0.1528
aF0.1661
aF0.1634
aF0.161
aF0.1622
aF0.1512
aF0.162
aF0.1579
aF0.1516
aF0.1546
aF0.1499
aF0.1577
aF0.1552
aF0.1522
aF0.1571
aF0.1604
aF0.1573
aF0.1586
aF0.1551
aF0.1579
aF0.146
aF0.1647
aF0.1552
aF0.1587
aF0.1522
aF0.1517
aF0.1608
aF0.1474
aF0.1529
aF0.1586
aF0.1453
aF0.1609
aF0.1551
aF0.1477
aF0.1558
aF0.1435
aF0.1601
aF0.1535
aF0.1548
aF0.1523
aF0.1433
aF0.1623
aF0.1545
aF0.1522
aF0.1565
aF0.1534
aF0.161
aF0.1548
aF0.1537
aF0.1548
aF0.1511
aF0.1562
aF0.1699
aF0.1561
aF0.1536
aF0.1515
aF0.1611
aF0.1501
aF0.1544
aF0.152
aF0.1491
aF0.1619
aF0.156
aF0.145
aF0.15
aF0.1422
aF0.1559
aF0.1538
aF0.1482
aF0.1536
aF0.1501
aF0.1589
aF0.1461
aF0.1527
aF0.1565
aF0.1446
aF0.1553
aF0.148
aF0.1463
aF0.1496
aF0.1458
aF0.1491
aF0.1516
aF0.1489
aF0.1519
aF0.144
aF0.1581
aF0.1487
aF0.1505
aF0.1474
aF0.1435
aF0.1587
aF0.1507
aF0.144
aF0.1473
aF0.1492
aF0.1537
aF0.1498
aF0.1506
aF0.1445
aF0.1413
aF0.1497
aF0.1444
aF0.1456
aF0.1542
aF0.1456
aF0.1518
aF0.1467
aF0.1403
aF0.1267
aF0.1211
aF0.1221
aF0.1152
aF0.118
aF0.1184
aF0.1119
aF0.1195
aF0.1063
aF0.1145
aF0.1158
aF0.1107
aF0.1156
aF0.1106
aF0.1115
aF0.1158
aF0.1089
aF0.1186
aF0.1047
aF0.1156
aF0.1124
aF0.1051
aF0.1128
aF0.1067
aF0.1085
aF0.1151
aF0.1058
aF0.1144
aF0.1078
aF0.1077
aF0.1063
aF0.103
aF0.1124
aF0.111
aF0.1079
aF0.1093
aF0.102
aF0.11
aF0.1063
aF0.1066
aF0.1092
aF0.0964
aF0.1113
aF0.11
aF0.1071
aF0.11
aF0.1059
aF0.1152
aF0.1078
aF0.1054
aF0.1057
aF0.1027
aF0.1121
aF0.1035
aF0.1041
aF0.1038
aF0.1013
aF0.1097
aF0.097
aF0.1047
aF0.109
aF0.0996
aF0.1087
aF0.1065
aF0.1034
aF0.1058
aF0.0986
aF0.111
aF0.1026
aF0.1009
aF0.1025
aF0.0984
aF0.1043
aF0.1007
aF0.105
aF0.1062
aF0.0999
aF0.1075
aF0.1053
aF0.0985
aF0.1067
aF0.0994
aF0.1086
aF0.0995
aF0.1057
aF0.1052
aF0.0975
aF0.1042
aF0.1018
aF0.1001
aF0.1046
aF0.1009
aF0.1074
aF0.1007
aF0.1006
aF0.1043
aF0.0945
aF0.1033
aF0.1011
aF0.1007
aF0.1069
aF0.0964
aF0.1053
aF0.0992
aF0.1003
aF0.0951
aF0.0958
aF0.1018
aF0.1004
aF0.1002
aF0.1013
aF0.0943
aF0.1058
aF0.1007
aF0.0993
aF0.1066
aF0.0988
aF0.1045
aF0.1005
aF0.0955
aF0.1016
aF0.0885
aF0.1038
aF0.104
aF0.0948
aF0.1008
aF0.095
aF0.1009
aF0.0987
aF0.0992
aF0.0999
aF0.0964
aF0.1006
aF0.0944
aF0.0995
aF0.1
aF0.0947
aF0.1006
aF0.0986
aF0.098
aF0.0963
aF0.0905
aF0.1051
aF0.0961
aF0.0972
aF0.0995
aF0.0921
aF0.1034
aF0.0966
aF0.0955
aF0.0987
aF0.0953
aF0.1026
aF0.099
aF0.0997
aF0.0981
aF0.0935
aF0.0976
aF0.0992
aF0.0939
aF0.0983
aF0.0917
aF0.1021
aF0.0918
aF0.0957
aF0.1003
aF0.0913
aF0.105
aF0.0987
aF0.0985
aF0.101
aF0.0947
aF0.1003
aF0.0917
aF0.0986
aF0.0977
aF0.0934
aF0.1001
aF0.098
aF0.0935
aF0.0951
aF0.0893
aF0.0992
aF0.0979
aF0.0951
aF0.095
aF0.091
aF0.0987
aF0.0959
aF0.0959
aF0.0969
aF0.0908
aF0.0992
aF0.0965
aF0.0949
aF0.0945
aF0.0869
aF0.0975
aF0.1001
aF0.0978
aF0.0969
aF0.0903
aF0.0993
aF0.094
aF0.0946
aF0.1009
aF0.0907
aF0.0973
aF0.0945
aF0.0945
aF0.095
aF0.0888
aF0.0996
aF0.0942
aF0.091
aF0.0974
aF0.0867
aF0.0994
aF0.0934
aF0.0938
aF0.091
aF0.0911
aF0.0995
aF0.0932
aF0.0931
aF0.096
aF0.0885
aF0.0967
aF0.0947
aF0.0943
aF0.1006
aF0.0929
aF0.0976
aF0.0957
aF0.0922
aF0.0943
aF0.0898
aF0.0951
aF0.0946
aF0.0932
aF0.0911
aF0.089
aF0.0985
aF0.0889
aF0.0913
aF0.098
aF0.0911
aF0.0987
aF0.0936
aF0.0957
aF0.0894
aF0.0837
aF0.0933
aF0.0951
aF0.0914
aF0.0931
aF0.0873
aF0.0934
aF0.0956
aF0.0933
aF0.0931
aF0.0912
aF0.0975
aF0.0917
aF0.0916
aF0.0931
aF0.0886
aF0.0974
aF0.0923
aF0.0896
aF0.0943
aF0.0841
aF0.0974
aF0.0953
aF0.0917
aF0.0941
aF0.0852
aF0.0958
aF0.0893
aF0.0895
aF0.0908
aF0.0882
aF0.0989
aF0.0901
aF0.0899
aF0.0938
aF0.0874
aF0.0933
aF0.0902
aF0.0922
aF0.0946
aF0.0867
aF0.0973
aF0.0924
aF0.0922
aF0.0936
aF0.0888
aF0.0939
aF0.09
aF0.0914
aF0.09
aF0.0823
aF0.0924
aF0.0893
aF0.0881
aF0.0959
aF0.0861
aF0.0961
aF0.0927
aF0.0941
aF0.0944
aF0.0887
aF0.0987
aF0.0918
aF0.0869
aF0.0947
aF0.0887
aF0.0961
aF0.0922
aF0.0917
aF0.0926
aF0.085
aF0.0944
aF0.0909
aF0.0892
aF0.0944
aF0.0885
aF0.096
aF0.0917
aF0.0859
aF0.092
aF0.0845
aF0.0942
aF0.0868
aF0.0906
aF0.0933
aF0.0851
aF0.0964
aF0.091
aF0.0868
aF0.0906
aF0.0861
aF0.0935
aF0.0905
aF0.0895
aF0.0906
aF0.0877
aF0.0907
aF0.0897
aF0.0868
aF0.0929
aF0.0812
aF0.088
aF0.0892
aF0.0901
aF0.0942
aF0.0853
aF0.0935
aF0.0888
aF0.0873
aF0.0899
aF0.0837
aF0.0914
aF0.0844
aF0.0874
aF0.0873
aF0.0868
aF0.0914
aF0.0939
aF0.0926
aF0.0891
aF0.087
aF0.0958
aF0.0871
aF0.0874
aF0.092
aF0.0822
aF0.0926
aF0.0888
aF0.0882
aF0.0899
aF0.082
aF0.0925
aF0.0873
aF0.0905
aF0.0899
aF0.0827
aF0.0966
aF0.0889
aF0.0917
aF0.0919
aF0.0816
aF0.0945
aF0.0861
aF0.085
aF0.0877
aF0.0854
aF0.0947
aF0.0863
aF0.0836
aF0.0861
aF0.0844
aF0.0936
aF0.0869
aF0.0922
aF0.0889
aF0.0855
aF0.0931
aF0.0872
aF0.0871
aF0.0911
aF0.0818
aF0.0926
aF0.0894
aF0.086
aF0.0896
aF0.0801
aF0.092
aF0.0893
aF0.0884
aF0.0946
aF0.085
aF0.0906
aF0.089
aF0.0849
aF0.0907
aF0.0831
aF0.0925
aF0.0879
aF0.0869
aF0.0872
aF0.0861
aF0.0914
aF0.0807
aF0.0834
aF0.0859
aF0.0819
aF0.0882
aF0.0865
aF0.085
aF0.0867
aF0.0837
aF0.0859
aF0.0885
aF0.0838
aF0.0876
aF0.0789
aF0.0885
aF0.0858
aF0.0882
aF0.0869
aF0.0798
aF0.0911
aF0.0836
aF0.0852
aF0.0849
aF0.0846
aF0.0927
aF0.0812
aF0.0852
aF0.0874
aF0.081
aF0.09
aF0.0877
aF0.0856
aF0.0888
aF0.0794
aF0.086
aF0.0876
aF0.0839
aF0.0846
aF0.0787
aF0.0927
aF0.0887
aF0.0843
aF0.0906
aF0.0835
aF0.088
aF0.0831
aF0.0905
aF0.0892
aF0.0844
aF0.0898
aF0.0867
aF0.0918
aF0.086
aF0.0828
aF0.091
aF0.0828
aF0.0847
aF0.0894
aF0.0796
aF0.0909
aF0.0871
aF0.0842
aF0.0817
aF0.079
aF0.0895
aF0.0877
aF0.089
aF0.0854
aF0.08
aF0.0879
aF0.0841
aF0.0841
aF0.0844
aF0.0805
aF0.0858
aF0.0834
aF0.0828
aF0.085
aF0.0803
aF0.0871
aF0.0839
aF0.0869
aF0.0851
aF0.081
aF0.0878
aF0.0811
aF0.0853
aF0.0865
aF0.0788
aF0.089
aF0.0853
aF0.0795
aF0.0806
aF0.0786
aF0.0847
aF0.0851
aF0.0819
aF0.086
aF0.0781
aF0.0911
aF0.0834
aF0.0818
aF0.0895
aF0.0822
aF0.085
aF0.0892
aF0.0824
aF0.0844
aF0.0828
aF0.0871
aF0.0818
aF0.0805
aF0.0846
aF0.0829
aF0.0882
aF0.0867
aF0.083
aF0.0819
aF0.0765
aF0.0894
aF0.0836
aF0.0862
aF0.0839
aF0.0796
aF0.0868
aF0.082
aF0.0847
aF0.0809
aF0.0793
aF0.0899
aF0.0807
aF0.0803
aF0.0859
aF0.0764
aF0.0865
aF0.0808
aF0.0808
aF0.0838
aF0.0757
aF0.0846
aF0.0828
aF0.0876
aF0.0892
aF0.0811
aF0.0839
aF0.0823
aF0.0778
aF0.0868
aF0.0777
aF0.085
aF0.0826
aF0.0842
aF0.0826
aF0.0796
aF0.0849
aF0.0832
aF0.0844
aF0.0842
aF0.0796
aF0.0847
aF0.0826
aF0.0753
aF0.0827
aF0.0768
aF0.0836
aF0.0814
aF0.0791
aF0.0834
aF0.0752
aF0.0865
aF0.0807
aF0.0815
aF0.0863
aF0.0812
aF0.0867
aF0.0834
aF0.0819
aF0.0821
aF0.0764
aF0.0854
aF0.0838
aF0.0846
aF0.0833
aF0.0803
aF0.0854
aF0.084
aF0.076
aF0.0836
aF0.0788
aF0.0887
aF0.0836
aF0.0863
aF0.0819
aF0.078
aF0.0888
aF0.0801
aF0.0793
aF0.0852
aF0.0761
aF0.0912
aF0.0833
aF0.0815
aF0.0834
aF0.0802
aF0.0834
aF0.0836
aF0.0822
aF0.0803
aF0.0775
aF0.0861
aF0.0792
aF0.0794
aF0.0816
aF0.0787
aF0.0877
aF0.0812
aF0.0788
aF0.0815
aF0.0787
aF0.0848
aF0.0824
aF0.0842
aF0.0825
aF0.0789
aF0.0828
aF0.0839
aF0.0768
aF0.082
aF0.0799
aF0.0875
aF0.0797
aF0.0833
aF0.0811
aF0.0751
aF0.0856
aF0.0788
aF0.0839
aF0.0819
aF0.0741
aF0.0859
aF0.0788
aF0.0845
aF0.084
aF0.0787
aF0.0844
aF0.0785
aF0.0838
aF0.0836
aF0.0759
aF0.0864
aF0.0804
aF0.0805
aF0.0812
aF0.0762
aF0.0811
aF0.0814
aF0.0776
aF0.0829
aF0.0783
aF0.0834
aF0.0766
aF0.0852
aF0.0788
aF0.0783
aF0.0837
aF0.0783
aF0.0789
aF0.0833
aF0.0768
aF0.0828
aF0.0784
aF0.081
aF0.0818
aF0.0731
aF0.0836
aF0.0829
aF0.0806
aF0.0811
aF0.0794
aF0.0874
aF0.0801
aF0.0794
aF0.0835
aF0.0769
aF0.086
aF0.0816
aF0.0787
aF0.0825
aF0.0733
aF0.0831
aF0.0806
aF0.0802
aF0.0778
aF0.0746
aF0.0844
aF0.082
aF0.0801
aF0.0809
aF0.0768
aF0.0853
aF0.0765
aF0.078
aF0.0791
aF0.0769
aF0.085
aF0.0791
a.