(lp0
F0.8134
aF0.7162
aF0.6689
aF0.6342
aF0.6161
aF0.5822
aF0.5673
aF0.5508
aF0.5289
aF0.5179
aF0.5017
aF0.4868
aF0.4652
aF0.4636
aF0.4464
aF0.4417
aF0.4277
aF0.4424
aF0.4174
aF0.4386
aF0.4037
aF0.4109
aF0.3831
aF0.4009
aF0.3871
aF0.3839
aF0.3664
aF0.3815
aF0.3646
aF0.3723
aF0.3504
aF0.3574
aF0.3639
aF0.3326
aF0.3477
aF0.3488
aF0.3309
aF0.3368
aF0.3353
aF0.3282
aF0.3337
aF0.3305
aF0.3227
aF0.329
aF0.3277
aF0.3191
aF0.3192
aF0.3213
aF0.3067
aF0.3158
aF0.314
aF0.2997
aF0.3099
aF0.3091
aF0.2873
aF0.3036
aF0.2989
aF0.293
aF0.2998
aF0.287
aF0.2835
aF0.2975
aF0.2919
aF0.2844
aF0.2846
aF0.2822
aF0.2766
aF0.2888
aF0.2823
aF0.2765
aF0.2773
aF0.2766
aF0.2703
aF0.2825
aF0.2759
aF0.2606
aF0.2626
aF0.2814
aF0.2685
aF0.3011
aF0.2605
aF0.2718
aF0.2656
aF0.3
aF0.2597
aF0.2711
aF0.2667
aF0.2865
aF0.2664
aF0.2665
aF0.2545
aF0.284
aF0.2542
aF0.2694
aF0.2536
aF0.2773
aF0.2578
aF0.2551
aF0.256
aF0.2819
aF0.2517
aF0.2631
aF0.2532
aF0.2744
aF0.2493
aF0.2631
aF0.2433
aF0.2642
aF0.2392
aF0.2523
aF0.2492
aF0.2626
aF0.2554
aF0.2476
aF0.2415
aF0.2631
aF0.242
aF0.2462
aF0.2516
aF0.2608
aF0.2445
aF0.2394
aF0.2267
aF0.2618
aF0.2469
aF0.2416
aF0.237
aF0.2538
aF0.2334
aF0.2431
aF0.2373
aF0.2547
aF0.2404
aF0.2388
aF0.2316
aF0.2486
aF0.2354
aF0.2424
aF0.2294
aF0.2514
aF0.2344
aF0.2377
aF0.2326
aF0.2463
aF0.2286
aF0.2331
aF0.2314
aF0.2361
aF0.2285
aF0.2329
aF0.2296
aF0.2493
aF0.2228
aF0.2299
aF0.2304
aF0.2482
aF0.2279
aF0.2281
aF0.219
aF0.2447
aF0.224
aF0.2327
aF0.2214
aF0.2349
aF0.2229
aF0.2381
aF0.2166
aF0.2253
aF0.2402
aF0.2525
aF0.2287
aF0.2212
aF0.2149
aF0.2352
aF0.251
aF0.2221
aF0.2262
aF0.2195
aF0.2378
aF0.245
aF0.2211
aF0.2242
aF0.2188
aF0.2353
aF0.2457
aF0.2183
aF0.2209
aF0.2143
aF0.2306
aF0.2403
aF0.2204
aF0.2188
aF0.2167
aF0.2293
aF0.2413
aF0.21
aF0.2174
aF0.2115
aF0.2285
aF0.2382
aF0.2169
aF0.2163
aF0.2134
aF0.2319
aF0.235
aF0.2151
aF0.2348
aF0.2167
aF0.2325
aF0.2315
aF0.2155
aF0.2217
aF0.2108
aF0.2266
aF0.2257
aF0.2187
aF0.2176
aF0.2092
aF0.226
aF0.237
aF0.2047
aF0.2144
aF0.2061
aF0.2204
aF0.2261
aF0.2072
aF0.216
aF0.2151
aF0.2197
aF0.2257
aF0.2139
aF0.2175
aF0.2058
aF0.2201
aF0.2221
aF0.208
aF0.2163
aF0.211
aF0.2217
aF0.2254
aF0.2097
aF0.2145
aF0.2098
aF0.2226
aF0.2098
aF0.2055
aF0.2081
aF0.2099
aF0.2122
aF0.2182
aF0.2026
aF0.2099
aF0.207
aF0.2168
aF0.2143
aF0.2049
aF0.213
aF0.2075
aF0.2143
aF0.2133
aF0.2118
aF0.2148
aF0.2031
aF0.2132
aF0.2163
aF0.2017
aF0.2103
aF0.1994
aF0.2159
aF0.2166
aF0.1988
aF0.2075
aF0.1982
aF0.2162
aF0.2163
aF0.2045
aF0.2103
aF0.2053
aF0.2137
aF0.2132
aF0.2025
aF0.2045
aF0.1975
aF0.2131
aF0.2094
aF0.1996
aF0.2046
aF0.2037
aF0.2133
aF0.2161
aF0.2054
aF0.1996
aF0.1967
aF0.209
aF0.2044
aF0.2071
aF0.2033
aF0.1973
aF0.2116
aF0.2043
aF0.2034
aF0.2024
aF0.1972
aF0.207
aF0.2058
aF0.1961
aF0.2062
aF0.1929
aF0.2057
aF0.2133
aF0.1886
aF0.2011
aF0.1959
aF0.2012
aF0.2048
aF0.2011
aF0.1959
aF0.1921
aF0.2057
aF0.2028
aF0.197
aF0.2012
aF0.2034
aF0.1993
aF0.1994
aF0.2004
aF0.1977
aF0.1935
aF0.2073
aF0.2035
aF0.1957
aF0.2035
aF0.1922
aF0.1951
aF0.1982
aF0.1943
aF0.1971
aF0.1989
aF0.2071
aF0.2029
aF0.2012
aF0.1943
aF0.1881
aF0.2032
aF0.1994
aF0.1869
aF0.1973
aF0.1925
aF0.1979
aF0.2
aF0.1977
aF0.1941
aF0.1956
aF0.2115
aF0.2007
aF0.1969
aF0.1993
aF0.1958
aF0.2081
aF0.2022
aF0.1917
aF0.1937
aF0.1973
aF0.2015
aF0.1972
aF0.1962
aF0.199
aF0.1918
aF0.2081
aF0.1984
aF0.1831
aF0.1954
aF0.1905
aF0.1985
aF0.1912
aF0.1928
aF0.1947
aF0.1967
aF0.1985
aF0.1944
aF0.1937
aF0.184
aF0.1929
aF0.1977
aF0.1965
aF0.1789
aF0.2007
aF0.1925
aF0.1987
aF0.1952
aF0.1879
aF0.1968
aF0.1885
aF0.2006
aF0.1898
aF0.1857
aF0.1991
aF0.1898
aF0.1993
aF0.2011
aF0.1896
aF0.2008
aF0.1856
aF0.1989
aF0.1952
aF0.19
aF0.191
aF0.1835
aF0.2017
aF0.1875
aF0.1916
aF0.1944
aF0.1832
aF0.2023
aF0.1906
aF0.1846
aF0.1918
aF0.1845
aF0.196
aF0.1905
aF0.1831
aF0.1894
aF0.1911
aF0.2
aF0.1862
aF0.1862
aF0.1927
aF0.1859
aF0.2012
aF0.1957
aF0.1883
aF0.1953
aF0.1909
aF0.193
aF0.188
aF0.1889
aF0.1975
aF0.184
aF0.198
aF0.1964
aF0.1817
aF0.1893
aF0.1844
aF0.1986
aF0.1873
aF0.1866
aF0.1916
aF0.1852
aF0.1978
aF0.1932
aF0.1883
aF0.191
aF0.1888
aF0.1892
aF0.1894
aF0.1818
aF0.1961
aF0.1891
aF0.194
aF0.1931
aF0.1857
aF0.1939
aF0.1885
aF0.205
aF0.188
aF0.1793
aF0.1879
aF0.1874
aF0.1994
aF0.1873
aF0.1853
aF0.1888
aF0.1855
aF0.1899
aF0.189
aF0.1828
aF0.1854
aF0.1829
aF0.1991
aF0.186
aF0.177
aF0.1881
aF0.1834
aF0.1985
aF0.1906
aF0.1799
aF0.1892
aF0.1798
aF0.1912
aF0.1936
aF0.1812
aF0.1915
aF0.1778
aF0.1914
aF0.1839
aF0.1846
aF0.1693
aF0.1597
aF0.1641
aF0.1567
aF0.1549
aF0.16
aF0.151
aF0.1541
aF0.1522
aF0.1521
aF0.1568
aF0.1527
aF0.158
aF0.1478
aF0.1496
aF0.1573
aF0.1466
aF0.157
aF0.1508
aF0.1511
aF0.1555
aF0.1503
aF0.1545
aF0.1453
aF0.1459
aF0.1536
aF0.1487
aF0.1521
aF0.153
aF0.1481
aF0.1508
aF0.1466
aF0.1504
aF0.1496
aF0.147
aF0.1524
aF0.1465
aF0.1494
aF0.1438
aF0.1432
aF0.1513
aF0.1487
aF0.1487
aF0.1491
aF0.1409
aF0.1433
aF0.1439
aF0.1526
aF0.148
aF0.1447
aF0.1495
aF0.1457
aF0.1536
aF0.1457
aF0.1422
aF0.1458
aF0.1418
aF0.151
aF0.1417
aF0.1428
aF0.1464
aF0.1387
aF0.1511
aF0.1441
aF0.1383
aF0.1448
aF0.1466
aF0.1504
aF0.1453
aF0.1444
aF0.1458
aF0.1441
aF0.1517
aF0.1466
aF0.142
aF0.1433
aF0.1433
aF0.1442
aF0.1495
aF0.1423
aF0.1468
aF0.1415
aF0.1468
aF0.141
aF0.1414
aF0.1488
aF0.1377
aF0.1485
aF0.1468
aF0.1397
aF0.1456
aF0.1371
aF0.1496
aF0.1422
aF0.1388
aF0.1488
aF0.1393
aF0.148
aF0.1466
aF0.1405
aF0.1434
aF0.1441
aF0.1488
aF0.1455
aF0.1381
aF0.1457
aF0.139
aF0.1462
aF0.1429
aF0.1361
aF0.143
aF0.135
aF0.1482
aF0.1422
aF0.1408
aF0.145
aF0.1356
aF0.1444
aF0.1395
aF0.1366
aF0.1418
aF0.1359
aF0.1445
aF0.1374
aF0.1377
aF0.1456
aF0.1391
aF0.1489
aF0.1442
aF0.1343
aF0.1464
aF0.1376
aF0.1467
aF0.1419
aF0.1362
aF0.1468
aF0.1386
aF0.1406
aF0.1409
aF0.1384
aF0.1449
aF0.135
aF0.1443
aF0.1423
aF0.1366
aF0.1417
aF0.1367
aF0.1422
aF0.142
a.