(lp0
F0.8657
aF0.7727
aF0.713
aF0.6702
aF0.6154
aF0.5674
aF0.5262
aF0.5044
aF0.4643
aF0.4483
aF0.4344
aF0.4142
aF0.4068
aF0.3889
aF0.3756
aF0.3646
aF0.359
aF0.3749
aF0.3408
aF0.3646
aF0.3316
aF0.3417
aF0.3232
aF0.3267
aF0.304
aF0.318
aF0.2967
aF0.3001
aF0.2916
aF0.2986
aF0.2732
aF0.2956
aF0.2924
aF0.2791
aF0.2802
aF0.2862
aF0.271
aF0.2754
aF0.273
aF0.2664
aF0.2665
aF0.2584
aF0.2515
aF0.2603
aF0.255
aF0.2467
aF0.2491
aF0.2429
aF0.2498
aF0.2481
aF0.2453
aF0.2382
aF0.2471
aF0.2417
aF0.2339
aF0.2326
aF0.2335
aF0.2307
aF0.2287
aF0.2282
aF0.221
aF0.2282
aF0.2271
aF0.218
aF0.2205
aF0.218
aF0.2079
aF0.22
aF0.2101
aF0.2158
aF0.2154
aF0.2164
aF0.1977
aF0.2126
aF0.214
aF0.2093
aF0.1938
aF0.2104
aF0.2009
aF0.2496
aF0.2012
aF0.2029
aF0.2101
aF0.2373
aF0.1977
aF0.208
aF0.197
aF0.2301
aF0.1914
aF0.1941
aF0.1876
aF0.2171
aF0.1914
aF0.1971
aF0.1885
aF0.2174
aF0.191
aF0.1923
aF0.1948
aF0.2112
aF0.1787
aF0.1899
aF0.1923
aF0.2116
aF0.1783
aF0.1855
aF0.1834
aF0.2065
aF0.1791
aF0.181
aF0.1765
aF0.2069
aF0.1788
aF0.1867
aF0.1757
aF0.1948
aF0.1743
aF0.1813
aF0.1713
aF0.1963
aF0.1741
aF0.1791
aF0.1763
aF0.1977
aF0.1688
aF0.1748
aF0.1764
aF0.1947
aF0.1706
aF0.1743
aF0.1705
aF0.1896
aF0.1649
aF0.1749
aF0.1664
aF0.179
aF0.1648
aF0.1674
aF0.1672
aF0.1903
aF0.1626
aF0.1675
aF0.1586
aF0.1798
aF0.166
aF0.1709
aF0.1574
aF0.1771
aF0.1637
aF0.1648
aF0.1604
aF0.1757
aF0.1637
aF0.1611
aF0.1568
aF0.1719
aF0.1541
aF0.1666
aF0.1509
aF0.1708
aF0.1494
aF0.1626
aF0.1547
aF0.1726
aF0.1598
aF0.158
aF0.1447
aF0.1514
aF0.1732
aF0.2028
aF0.1522
aF0.1559
aF0.154
aF0.1646
aF0.1851
aF0.1514
aF0.1506
aF0.1522
aF0.1635
aF0.1886
aF0.1518
aF0.1536
aF0.1453
aF0.1687
aF0.1779
aF0.15
aF0.1552
aF0.1472
aF0.1631
aF0.1746
aF0.1513
aF0.1532
aF0.1439
aF0.1609
aF0.1711
aF0.1479
aF0.1498
aF0.1415
aF0.1666
aF0.17
aF0.1486
aF0.1485
aF0.1426
aF0.1596
aF0.1657
aF0.1411
aF0.1398
aF0.1453
aF0.1578
aF0.1644
aF0.1398
aF0.1464
aF0.1445
aF0.1559
aF0.1581
aF0.1395
aF0.1447
aF0.1385
aF0.1566
aF0.1514
aF0.1465
aF0.1404
aF0.1427
aF0.1493
aF0.1586
aF0.1474
aF0.1441
aF0.1381
aF0.1477
aF0.1527
aF0.1432
aF0.1458
aF0.1372
aF0.1497
aF0.1535
aF0.1405
aF0.1404
aF0.1393
aF0.1541
aF0.1514
aF0.1371
aF0.135
aF0.1279
aF0.1436
aF0.1484
aF0.1367
aF0.1407
aF0.1379
aF0.1427
aF0.1515
aF0.1396
aF0.1363
aF0.1339
aF0.1442
aF0.1456
aF0.1391
aF0.1379
aF0.1288
aF0.1456
aF0.1442
aF0.1352
aF0.1382
aF0.1438
aF0.1458
aF0.1567
aF0.1389
aF0.1339
aF0.1314
aF0.1434
aF0.1332
aF0.1327
aF0.1394
aF0.133
aF0.1378
aF0.1407
aF0.1348
aF0.1337
aF0.129
aF0.1424
aF0.1408
aF0.1332
aF0.133
aF0.1325
aF0.1372
aF0.1362
aF0.1323
aF0.1326
aF0.1297
aF0.1399
aF0.1437
aF0.14
aF0.1326
aF0.1509
aF0.1311
aF0.1371
aF0.1373
aF0.1281
aF0.1322
aF0.1451
aF0.1401
aF0.1305
aF0.126
aF0.1267
aF0.1386
aF0.1332
a.