(lp0
F0.7764
aF0.6792
aF0.619
aF0.6071
aF0.5781
aF0.5624
aF0.5505
aF0.5294
aF0.519
aF0.5121
aF0.5114
aF0.5064
aF0.4786
aF0.4877
aF0.4694
aF0.4667
aF0.4576
aF0.4674
aF0.446
aF0.4645
aF0.4433
aF0.4511
aF0.4343
aF0.4453
aF0.4235
aF0.4215
aF0.4105
aF0.4121
aF0.4036
aF0.4179
aF0.3992
aF0.4084
aF0.4067
aF0.3905
aF0.3886
aF0.3987
aF0.3739
aF0.3913
aF0.382
aF0.3755
aF0.3854
aF0.3711
aF0.3661
aF0.3728
aF0.3691
aF0.3766
aF0.3704
aF0.3674
aF0.3532
aF0.356
aF0.3615
aF0.3591
aF0.361
aF0.3534
aF0.3424
aF0.3549
aF0.3398
aF0.3441
aF0.3466
aF0.3375
aF0.3305
aF0.3485
aF0.3421
aF0.3383
aF0.338
aF0.3302
aF0.3246
aF0.3371
aF0.3365
aF0.33
aF0.3319
aF0.3265
aF0.3267
aF0.3319
aF0.3355
aF0.3257
aF0.3224
aF0.3296
aF0.3173
aF0.3411
aF0.3188
aF0.3257
aF0.3127
aF0.3389
aF0.3193
aF0.3239
aF0.3087
aF0.3352
aF0.3106
aF0.3117
aF0.3032
aF0.3313
aF0.303
aF0.3115
aF0.301
aF0.3262
aF0.3196
aF0.309
aF0.3048
aF0.325
aF0.3043
aF0.3181
aF0.3089
aF0.3222
aF0.2974
aF0.3049
aF0.291
aF0.3117
aF0.3016
aF0.301
aF0.2968
aF0.309
aF0.3009
aF0.292
aF0.295
aF0.3127
aF0.2895
aF0.2989
aF0.3024
aF0.3003
aF0.2911
aF0.2921
aF0.2833
aF0.3026
aF0.2872
aF0.2773
aF0.282
aF0.3017
aF0.2931
aF0.2938
aF0.2888
aF0.2985
aF0.2869
aF0.29
aF0.28225
aF0.2919
aF0.2807
aF0.2836
aF0.2744
aF0.2923
aF0.2813
aF0.2894
aF0.2775
aF0.2951
aF0.2809
aF0.2769
aF0.2753
aF0.2925
aF0.2784
aF0.28
aF0.2788
aF0.2865
aF0.2771
aF0.2737
aF0.2733
aF0.2915
aF0.2746
aF0.2795
aF0.2762
aF0.291
aF0.2808
aF0.2765
aF0.2745
aF0.2867
aF0.2761
aF0.2787
aF0.2682
aF0.2759
aF0.2883
aF0.2914
aF0.2843
aF0.2675
aF0.2723
aF0.2911
aF0.2828
aF0.2679
aF0.2669
aF0.2643
aF0.2909
aF0.2794
aF0.2693
aF0.2615
aF0.2666
aF0.2816
aF0.2948
aF0.2678
aF0.2692
aF0.2595
aF0.2685
aF0.2787
aF0.2685
aF0.2712
aF0.2629
aF0.2708
aF0.2749
aF0.2605
aF0.2604
aF0.2664
aF0.2716
aF0.2728
aF0.2577
aF0.2702
aF0.2601
aF0.2767
aF0.2731
aF0.2611
aF0.2602
aF0.267
aF0.2741
aF0.2705
aF0.2557
aF0.2638
aF0.2542
aF0.2763
aF0.2677
aF0.2622
aF0.262
aF0.2581
aF0.2647
aF0.2722
aF0.2603
aF0.258
aF0.25
aF0.2583
aF0.263
aF0.2612
aF0.2532
aF0.2577
aF0.271
aF0.2702
aF0.2578
aF0.2559
aF0.2498
aF0.2645
aF0.2608
aF0.2536
aF0.2563
aF0.2559
aF0.2683
aF0.2635
aF0.2522
aF0.2582
aF0.2524
aF0.2594
aF0.2541
aF0.2557
aF0.2649
aF0.2589
aF0.2586
aF0.2548
aF0.2535
aF0.25
aF0.2536
aF0.2568
aF0.2547
aF0.2515
aF0.2572
aF0.2453
aF0.2595
aF0.2514
aF0.2568
aF0.2549
aF0.2413
aF0.2624
aF0.2532
aF0.2523
aF0.2527
aF0.2536
aF0.2543
aF0.2582
aF0.249
aF0.2482
aF0.2398
aF0.2568
aF0.2557
aF0.254
aF0.2496
aF0.2476
aF0.263
aF0.2566
aF0.2497
aF0.2484
aF0.2475
aF0.2498
aF0.2448
aF0.2466
aF0.2474
aF0.2421
aF0.2542
aF0.2482
aF0.2428
aF0.2487
aF0.2436
aF0.2511
aF0.2534
aF0.2417
aF0.2468
aF0.2432
aF0.2527
aF0.2476
aF0.2543
aF0.2468
aF0.245
aF0.2521
aF0.2504
aF0.2591
aF0.241
aF0.2427
aF0.2475
aF0.2489
aF0.2407
aF0.2514
aF0.238
aF0.2414
aF0.2477
aF0.2524
aF0.2396
aF0.2388
aF0.2537
aF0.2441
aF0.2445
aF0.2434
aF0.2421
aF0.2498
aF0.2406
aF0.2497
aF0.244
aF0.2312
aF0.2471
aF0.2387
aF0.244
aF0.238
aF0.2354
aF0.2436
aF0.2398
aF0.2436
aF0.2458
aF0.2416
aF0.2448
aF0.2409
aF0.2482
aF0.2387
aF0.2343
aF0.2402
aF0.2385
aF0.2341
aF0.2364
aF0.2393
aF0.2426
aF0.2355
aF0.2398
aF0.2372
aF0.2355
aF0.2513
aF0.2324
aF0.2423
aF0.2401
aF0.2284
aF0.2429
aF0.2447
aF0.2394
aF0.246
aF0.2328
aF0.2377
aF0.2374
aF0.2345
aF0.2418
aF0.24
aF0.2359
aF0.235
aF0.2325
aF0.2371
aF0.2315
aF0.242
aF0.2328
aF0.2386
aF0.2431
aF0.2253
aF0.2406
aF0.2344
aF0.2362
aF0.2412
aF0.2371
aF0.237
aF0.2324
aF0.2351
aF0.241
aF0.2318
aF0.2433
aF0.2283
aF0.2379
aF0.2395
aF0.2321
aF0.2494
aF0.2302
aF0.2275
aF0.2374
aF0.228
aF0.2326
aF0.2303
aF0.2365
aF0.2413
aF0.2294
aF0.2388
aF0.2405
aF0.2293
aF0.2341
aF0.2267
aF0.2401
aF0.2313
aF0.2255
aF0.2366
aF0.2321
aF0.2388
aF0.2303
aF0.229
aF0.2378
aF0.2245
aF0.2365
aF0.2355
aF0.2284
aF0.2299
aF0.2241
aF0.2411
aF0.2374
aF0.2308
aF0.2274
aF0.232
aF0.238
aF0.2354
aF0.2314
aF0.2294
aF0.2329
aF0.2301
aF0.2191
aF0.2315
aF0.2352
aF0.2256
aF0.234
aF0.2385
aF0.2265
aF0.2328
aF0.2276
aF0.2322
aF0.2303
aF0.2332
aF0.2236
aF0.2293
aF0.2282
aF0.2279
aF0.2315
aF0.2296
aF0.2211
aF0.2332
aF0.229
aF0.2268
aF0.2291
aF0.2258
aF0.2365
aF0.227
aF0.2278
aF0.23
aF0.2241
aF0.2321
aF0.223
aF0.2276
aF0.2277
aF0.2333
aF0.2292
aF0.2276
aF0.2323
aF0.2254
aF0.223
aF0.233
aF0.2256
aF0.2226
aF0.2267
aF0.225
aF0.2399
aF0.2179
aF0.2227
aF0.225
aF0.2261
aF0.2296
aF0.2296
aF0.2222
aF0.2274
aF0.2272
aF0.2349
aF0.2287
aF0.2241
aF0.228
aF0.2202
aF0.2311
aF0.2202
aF0.2262
aF0.2027
aF0.1947
aF0.2047
aF0.1935
aF0.1989
aF0.2008
aF0.1941
aF0.2009
aF0.1896
aF0.1931
aF0.1951
aF0.1929
aF0.1973
aF0.1857
aF0.1869
aF0.1908
aF0.1923
aF0.2009
aF0.1878
aF0.1893
aF0.1928
aF0.1827
aF0.1967
aF0.1889
aF0.1869
aF0.1921
aF0.1869
aF0.1952
aF0.1859
aF0.1888
aF0.1905
aF0.1872
aF0.1943
aF0.1918
aF0.1891
aF0.1883
aF0.1907
aF0.1935
aF0.1852
aF0.1899
aF0.1886
aF0.1843
aF0.1932
aF0.1892
aF0.1848
aF0.1827
aF0.187
aF0.1897
aF0.1861
aF0.185
aF0.1907
aF0.1901
aF0.1865
aF0.1858
aF0.1855
aF0.181
aF0.1856
aF0.193
aF0.1844
aF0.184
aF0.19
aF0.1839
aF0.191
aF0.1794
aF0.1782
aF0.1812
aF0.1837
aF0.1935
aF0.1882
aF0.1838
aF0.1858
aF0.1812
aF0.1932
aF0.1833
aF0.1854
aF0.1812
aF0.1851
aF0.1857
aF0.1778
aF0.1902
aF0.1841
aF0.1833
aF0.1887
aF0.1844
aF0.1841
aF0.1839
aF0.1849
aF0.1869
aF0.1835
aF0.1805
aF0.1841
aF0.1808
aF0.1879
aF0.1843
aF0.1814
aF0.1799
aF0.1874
aF0.191
aF0.182
aF0.1814
aF0.1839
aF0.1789
aF0.187
aF0.1853
aF0.1806
aF0.1858
aF0.1828
aF0.1868
aF0.1758
aF0.1791
aF0.1821
aF0.1811
aF0.1921
aF0.1806
aF0.1788
aF0.1763
aF0.176
aF0.1874
aF0.1826
aF0.1766
aF0.1805
aF0.1751
aF0.1871
aF0.1823
aF0.1796
aF0.1842
aF0.1765
aF0.1923
aF0.1793
aF0.1817
aF0.1837
aF0.1795
aF0.1947
aF0.1779
aF0.1745
aF0.181
aF0.1819
aF0.1833
aF0.1853
aF0.1851
aF0.1835
aF0.1766
aF0.1894
aF0.1804
aF0.1819
aF0.1804
aF0.1792
aF0.1852
aF0.1754
a.