(lp0
F0.8761
aF0.7996
aF0.7427
aF0.6957
aF0.662
aF0.6191
aF0.5838
aF0.5567
aF0.5215
aF0.5046
aF0.476
aF0.4546
aF0.4352
aF0.416
aF0.4066
aF0.3882
aF0.3794
aF0.3954
aF0.3579
aF0.3672
aF0.3395
aF0.3492
aF0.3392
aF0.3342
aF0.3153
aF0.3157
aF0.3022
aF0.3068
aF0.2977
aF0.3
aF0.2842
aF0.2997
aF0.3014
aF0.283
aF0.2861
aF0.2862
aF0.2743
aF0.2781
aF0.275
aF0.263
aF0.2694
aF0.2644
aF0.2538
aF0.2653
aF0.2594
aF0.2481
aF0.2509
aF0.2611
aF0.244
aF0.2444
aF0.246
aF0.2394
aF0.2389
aF0.2304
aF0.2355
aF0.2313
aF0.2315
aF0.2298
aF0.2271
aF0.2371
aF0.2247
aF0.2274
aF0.223
aF0.2242
aF0.2178
aF0.2161
aF0.2151
aF0.216
aF0.2124
aF0.2073
aF0.2111
aF0.2135
aF0.2049
aF0.22
aF0.2112
aF0.1964
aF0.19
aF0.2129
aF0.2116
aF0.2531
aF0.2039
aF0.2027
aF0.2001
aF0.2367
aF0.1929
aF0.1979
aF0.2011
aF0.228
aF0.1912
aF0.1949
aF0.1946
aF0.2283
aF0.189
aF0.2017
aF0.1833
aF0.2206
aF0.1846
aF0.1948
aF0.1894
aF0.2221
aF0.1874
aF0.1897
aF0.1798
aF0.2136
aF0.1707
aF0.1834
aF0.1783
aF0.204
aF0.1709
aF0.1864
aF0.1771
aF0.202
aF0.1671
aF0.1791
aF0.1786
aF0.2006
aF0.1709
aF0.1818
aF0.1733
aF0.1966
aF0.1706
aF0.1729
aF0.1727
aF0.1924
aF0.1697
aF0.176
aF0.1642
aF0.1864
aF0.1696
aF0.1722
aF0.1619
aF0.1853
aF0.1658
aF0.1712
aF0.1698
aF0.1779
aF0.1585
aF0.1678
aF0.1608
aF0.1768
aF0.1555
aF0.1682
aF0.1614
aF0.1773
aF0.1577
aF0.1644
aF0.1601
aF0.1733
aF0.1636
aF0.16
aF0.1562
aF0.1783
aF0.1586
aF0.1573
aF0.1524
aF0.172
aF0.1486
aF0.1664
aF0.1545
aF0.1704
aF0.147
aF0.1663
aF0.1574
aF0.1642
aF0.1484
aF0.1559
aF0.1424
aF0.1453
aF0.171
aF0.2036
aF0.1603
aF0.1495
aF0.147
aF0.1594
aF0.1886
aF0.1544
aF0.1451
aF0.1471
aF0.1562
aF0.1814
aF0.1526
aF0.1522
aF0.1426
aF0.1618
aF0.1785
aF0.1451
aF0.1492
aF0.1437
aF0.1617
aF0.1745
aF0.1526
aF0.1543
aF0.1439
aF0.1562
aF0.1744
aF0.1479
aF0.15
aF0.1435
aF0.1611
aF0.1702
aF0.1461
aF0.1425
aF0.1483
aF0.1544
aF0.1656
aF0.1406
aF0.1443
aF0.1425
aF0.1507
aF0.1631
aF0.1454
aF0.1443
aF0.1429
aF0.1493
aF0.1664
aF0.1422
aF0.1452
aF0.135
aF0.1507
aF0.1613
aF0.1354
aF0.1454
aF0.1336
aF0.1504
aF0.1615
aF0.1448
aF0.1377
aF0.1368
aF0.1485
aF0.1618
aF0.1463
aF0.1516
aF0.1365
aF0.1425
aF0.1532
aF0.1361
aF0.1404
aF0.1395
aF0.1509
aF0.1506
aF0.1412
aF0.144
aF0.1341
aF0.1404
aF0.151
aF0.1411
aF0.1326
aF0.1344
aF0.1395
aF0.1472
aF0.1355
aF0.1331
aF0.134
aF0.1388
aF0.1443
aF0.1326
aF0.133
aF0.1305
aF0.1434
aF0.1387
aF0.1286
aF0.1359
aF0.1331
aF0.1391
aF0.1422
aF0.1352
aF0.135
aF0.1325
aF0.1312
aF0.1375
aF0.1256
aF0.1366
aF0.1346
aF0.1344
aF0.1388
aF0.1331
aF0.1355
aF0.1308
aF0.1394
aF0.14
aF0.1288
aF0.1345
aF0.1295
aF0.1355
aF0.1425
aF0.1309
aF0.1245
aF0.1313
aF0.1332
aF0.1377
aF0.1284
aF0.1332
aF0.1338
aF0.1397
aF0.135
aF0.1271
aF0.1281
aF0.1272
aF0.1313
aF0.131
aF0.1252
aF0.1303
aF0.1225
aF0.1339
aF0.1367
aF0.1338
aF0.1313
aF0.1299
aF0.1401
aF0.1305
aF0.1221
aF0.1318
aF0.1187
aF0.1265
aF0.1329
aF0.1251
aF0.1303
aF0.1281
aF0.1372
aF0.1369
aF0.1243
aF0.1273
aF0.1235
aF0.1277
aF0.1289
aF0.1272
aF0.1365
aF0.1293
aF0.1346
aF0.1368
aF0.1229
aF0.1256
aF0.1214
aF0.1358
aF0.1329
aF0.1234
aF0.1228
aF0.1181
aF0.1242
aF0.1258
aF0.1151
aF0.1224
aF0.1193
aF0.1293
aF0.1296
aF0.1264
aF0.126
aF0.1214
aF0.1249
aF0.1277
aF0.1209
aF0.1252
aF0.1237
aF0.1267
aF0.1262
aF0.1201
aF0.1265
aF0.1275
aF0.133
aF0.1218
aF0.1205
aF0.1266
aF0.1191
aF0.1252
aF0.1238
aF0.1156
aF0.1221
aF0.111
aF0.1214
aF0.1263
aF0.1166
aF0.1296
aF0.1161
aF0.1278
aF0.1206
aF0.1115
aF0.122
aF0.1206
aF0.1206
aF0.1219
aF0.1201
aF0.1198
aF0.1177
aF0.1231
aF0.1219
aF0.1193
aF0.1196
aF0.1155
aF0.117
aF0.1133
aF0.1176
aF0.1221
aF0.1144
aF0.1247
aF0.1188
aF0.118
aF0.1183
aF0.1142
aF0.122
aF0.1166
aF0.1168
aF0.1132
aF0.1173
aF0.1261
aF0.1192
aF0.1208
aF0.1183
aF0.1095
aF0.1258
aF0.1202
aF0.1135
aF0.1188
aF0.1116
aF0.1163
aF0.1205
aF0.1183
aF0.1158
aF0.1139
aF0.1216
aF0.1214
aF0.1157
aF0.1181
aF0.1157
aF0.1247
aF0.121
aF0.1195
aF0.1145
aF0.1083
aF0.1147
aF0.1149
aF0.1104
aF0.1127
aF0.1203
aF0.1171
aF0.114
aF0.1132
aF0.1168
aF0.1173
aF0.1189
aF0.117
aF0.1082
aF0.1081
aF0.1207
aF0.1169
aF0.1158
aF0.1125
aF0.1169
aF0.1127
aF0.1222
aF0.123
aF0.1089
aF0.1212
aF0.1098
aF0.1139
aF0.1166
aF0.1121
aF0.1198
aF0.1098
aF0.1125
aF0.1129
aF0.1153
aF0.1182
aF0.1171
aF0.1228
aF0.1128
aF0.1131
aF0.1205
aF0.1116
aF0.1238
aF0.115
aF0.1127
aF0.1164
aF0.109
aF0.1128
aF0.1179
aF0.1107
aF0.1133
aF0.1069
aF0.1115
aF0.1113
aF0.113
aF0.1078
aF0.1098
aF0.1165
aF0.1168
aF0.1096
aF0.1135
aF0.1087
aF0.1263
aF0.1188
aF0.1121
aF0.1398
aF0.1123
aF0.1155
aF0.1139
aF0.1233
aF0.1061
aF0.0955
aF0.0982
aF0.0904
aF0.0927
aF0.0948
aF0.0878
aF0.0921
aF0.0841
aF0.0929
aF0.0894
aF0.082
aF0.0845
aF0.082
aF0.0866
aF0.088
aF0.0804
aF0.0848
aF0.0801
aF0.0851
aF0.086
aF0.0814
aF0.0842
aF0.0789
aF0.0842
aF0.0846
aF0.0779
aF0.0833
aF0.0825
aF0.0805
aF0.0824
aF0.0748
aF0.0844
aF0.0812
aF0.0853
aF0.081
aF0.0761
aF0.0785
aF0.0801
aF0.0838
aF0.0869
aF0.0764
aF0.0843
aF0.0789
aF0.0841
aF0.0786
aF0.0776
aF0.0824
aF0.078
aF0.0804
aF0.0817
aF0.0784
aF0.0811
aF0.075
aF0.0807
aF0.0824
aF0.0715
aF0.0811
aF0.0728
aF0.0757
aF0.077
aF0.0749
aF0.0772
aF0.0763
aF0.0794
aF0.0788
aF0.0697
aF0.0769
aF0.0778
aF0.076
aF0.0773
aF0.076
aF0.0772
aF0.0794
aF0.0781
aF0.0735
aF0.0721
aF0.079
aF0.0739
aF0.0779
aF0.0777
aF0.0731
aF0.0757
aF0.0758
aF0.0759
aF0.0762
aF0.0718
aF0.0784
aF0.0737
aF0.0789
aF0.0752
aF0.073
aF0.0764
aF0.0723
aF0.0717
aF0.0745
aF0.0713
aF0.078
aF0.0738
aF0.0729
aF0.078
aF0.0721
aF0.074
aF0.0757
aF0.075
aF0.0743
aF0.0692
aF0.0729
aF0.0705
aF0.0738
aF0.077
aF0.0682
aF0.0718
aF0.0722
aF0.0727
aF0.0729
aF0.0691
aF0.0721
aF0.0712
aF0.0725
aF0.0766
aF0.0753
aF0.0847
aF0.0919
aF0.081
aF0.0826
aF0.0731
aF0.083
aF0.0801
aF0.0823
aF0.0789
aF0.0763
aF0.0805
aF0.082
aF0.0905
aF0.0797
aF0.0781
aF0.0801
aF0.0751
aF0.0753
aF0.0858
aF0.0786
aF0.0767
aF0.0784
aF0.0824
aF0.0778
aF0.0721
aF0.0783
aF0.0735
aF0.0797
aF0.0786
aF0.0692
aF0.0751
aF0.0716
aF0.0776
aF0.0728
aF0.0703
aF0.0767
aF0.0793
a.