(lp0
F0.8702
aF0.7969
aF0.746
aF0.7128
aF0.6698
aF0.6563
aF0.6286
aF0.5988
aF0.5726
aF0.5541
aF0.5269
aF0.5029
aF0.4973
aF0.4726
aF0.445
aF0.4309
aF0.4175
aF0.4315
aF0.3919
aF0.4004
aF0.3788
aF0.3871
aF0.3586
aF0.3661
aF0.3486
aF0.344
aF0.3313
aF0.3347
aF0.3163
aF0.3199
aF0.3105
aF0.3213
aF0.3108
aF0.2976
aF0.3113
aF0.3048
aF0.2826
aF0.2956
aF0.2928
aF0.2763
aF0.2848
aF0.278
aF0.2721
aF0.2706
aF0.2634
aF0.267
aF0.261
aF0.2531
aF0.2533
aF0.2552
aF0.2559
aF0.2454
aF0.2456
aF0.2416
aF0.2342
aF0.236
aF0.2385
aF0.235
aF0.2345
aF0.2321
aF0.2309
aF0.2172
aF0.2256
aF0.2178
aF0.2191
aF0.2217
aF0.2183
aF0.2193
aF0.2154
aF0.2136
aF0.2144
aF0.2055
aF0.2107
aF0.2089
aF0.2079
aF0.2026
aF0.193
aF0.2108
aF0.2057
aF0.2486
aF0.1989
aF0.2001
aF0.1986
aF0.2323
aF0.1941
aF0.2013
aF0.1863
aF0.2244
aF0.1906
aF0.1936
aF0.1854
aF0.2223
aF0.1867
aF0.1936
aF0.1824
aF0.2176
aF0.1799
aF0.1805
aF0.1756
aF0.2092
aF0.1836
aF0.1856
aF0.1749
aF0.21
aF0.1754
aF0.1784
aF0.1742
aF0.2021
aF0.1764
aF0.1829
aF0.1675
aF0.2029
aF0.1671
aF0.1701
aF0.1708
aF0.195
aF0.1683
aF0.1735
aF0.1679
aF0.1888
aF0.1647
aF0.1654
aF0.1643
aF0.1866
aF0.1648
aF0.168
aF0.1664
aF0.1855
aF0.1629
aF0.1608
aF0.1602
aF0.1809
aF0.1569
aF0.1601
aF0.158
aF0.173
aF0.1566
aF0.1525
aF0.1513
aF0.175
aF0.1598
aF0.1597
aF0.1565
aF0.178
aF0.1539
aF0.1518
aF0.1542
aF0.1698
aF0.1546
aF0.1515
aF0.1454
aF0.167
aF0.147
aF0.1571
aF0.1488
aF0.1613
aF0.1445
aF0.1495
aF0.1404
aF0.1609
aF0.1425
aF0.1507
aF0.1453
aF0.1543
aF0.1453
aF0.1405
aF0.1332
aF0.1465
aF0.1615
aF0.1942
aF0.1466
aF0.1384
aF0.1409
aF0.1556
aF0.187
aF0.1445
aF0.1396
aF0.1392
aF0.1556
aF0.1784
aF0.1402
aF0.1342
aF0.138
aF0.15
aF0.175
aF0.1404
aF0.1464
aF0.1287
aF0.147
aF0.1732
aF0.1408
aF0.1346
aF0.1345
aF0.142
aF0.1689
aF0.1369
aF0.1417
aF0.1334
aF0.1415
aF0.1641
aF0.1288
aF0.1279
aF0.1287
aF0.1428
aF0.1565
aF0.1416
aF0.1348
aF0.1298
aF0.1436
aF0.1671
aF0.133
aF0.1327
aF0.128
aF0.1438
aF0.1525
aF0.1345
aF0.1299
aF0.1279
aF0.1368
aF0.1586
aF0.1311
aF0.1306
aF0.1252
aF0.1311
aF0.1541
aF0.1294
aF0.1328
aF0.1255
aF0.1422
aF0.1443
aF0.126
aF0.1261
aF0.1278
aF0.1329
aF0.1451
aF0.128
aF0.1261
aF0.1202
aF0.1373
aF0.1444
aF0.1205
aF0.1231
aF0.1279
aF0.134
aF0.1365
aF0.1285
aF0.1243
aF0.121
aF0.1286
aF0.1424
aF0.1287
aF0.1289
aF0.1211
aF0.131
aF0.1375
aF0.1246
aF0.1242
aF0.1165
aF0.1326
aF0.1402
aF0.1255
aF0.1203
aF0.1182
aF0.1299
aF0.1327
aF0.1208
aF0.1182
aF0.1141
aF0.1205
aF0.1299
aF0.1157
aF0.1161
aF0.1159
aF0.1227
aF0.1289
aF0.1239
aF0.1163
aF0.1192
aF0.126
aF0.1263
aF0.1158
aF0.1174
aF0.1182
aF0.1222
aF0.1258
aF0.1173
aF0.1193
aF0.1083
aF0.1208
aF0.1232
aF0.1146
aF0.1163
aF0.1111
aF0.1191
aF0.1294
aF0.1128
aF0.1188
aF0.1164
aF0.1203
aF0.1185
aF0.1137
aF0.1136
aF0.1101
aF0.1192
aF0.1267
aF0.1098
aF0.1176
aF0.1045
aF0.1197
aF0.1209
aF0.1124
aF0.1107
aF0.1088
aF0.1187
aF0.1217
aF0.1106
aF0.1161
aF0.1061
aF0.113
aF0.1199
aF0.1146
aF0.1118
aF0.1058
aF0.1165
aF0.1149
aF0.1088
aF0.1121
aF0.1058
aF0.1204
aF0.1206
aF0.1076
aF0.1056
aF0.1075
aF0.1131
aF0.1176
aF0.1049
aF0.1119
aF0.1038
aF0.113
aF0.1173
aF0.1054
aF0.1164
aF0.1082
aF0.1128
aF0.1133
aF0.1039
aF0.1077
aF0.1043
aF0.1083
aF0.114
aF0.0978
aF0.1091
aF0.1055
aF0.1078
aF0.1146
aF0.1035
aF0.1067
aF0.1021
aF0.1092
aF0.1154
aF0.1054
aF0.106
aF0.1043
aF0.1104
aF0.1125
aF0.1074
aF0.1033
aF0.1065
aF0.11
aF0.1066
aF0.1073
aF0.1018
aF0.1015
aF0.1097
aF0.1059
aF0.1045
aF0.1024
aF0.1057
aF0.1105
aF0.1122
aF0.105
aF0.11
aF0.1051
aF0.1088
aF0.1071
aF0.0986
aF0.1028
aF0.1037
aF0.1088
aF0.1035
aF0.1066
aF0.0979
aF0.0982
aF0.1073
aF0.109
aF0.0941
aF0.1035
aF0.102
aF0.1042
aF0.1071
aF0.0975
aF0.1044
aF0.0943
aF0.1048
aF0.1089
aF0.1003
aF0.0987
aF0.0946
aF0.1065
aF0.1086
aF0.103
aF0.1044
aF0.0999
aF0.1068
aF0.101
aF0.1039
aF0.099
aF0.098
aF0.1037
aF0.0981
aF0.1006
aF0.0992
aF0.0978
aF0.1037
aF0.1036
aF0.0957
aF0.1031
aF0.0983
aF0.101
aF0.1019
aF0.0955
aF0.0978
aF0.0936
aF0.1013
aF0.099
aF0.1019
aF0.0961
aF0.0964
aF0.0993
aF0.1007
aF0.095
aF0.0983
aF0.0953
aF0.0981
aF0.1001
aF0.0938
aF0.0931
aF0.1017
aF0.1004
aF0.0921
aF0.0953
aF0.0986
aF0.0899
aF0.1014
aF0.0972
aF0.0988
aF0.0983
aF0.0907
aF0.1019
aF0.095
aF0.0963
aF0.0946
aF0.0954
aF0.097
aF0.1013
aF0.0974
aF0.0967
aF0.0919
aF0.0964
aF0.0996
aF0.0976
aF0.1021
aF0.0977
aF0.1018
aF0.0918
aF0.0982
aF0.0966
aF0.0979
aF0.0954
aF0.0983
aF0.095
aF0.0948
aF0.0963
aF0.0947
aF0.0935
aF0.0927
aF0.0914
aF0.0903
aF0.1008
aF0.0975
aF0.0946
aF0.0941
aF0.0934
aF0.0936
aF0.0999
aF0.0884
aF0.0763
aF0.0705
aF0.0729
aF0.0667
aF0.0748
aF0.0721
aF0.066
aF0.07
aF0.0685
aF0.0703
aF0.0697
aF0.0648
aF0.0664
aF0.0656
aF0.0678
aF0.0672
aF0.0608
aF0.0622
aF0.0648
aF0.0677
aF0.0672
aF0.0635
aF0.0643
aF0.0641
aF0.0654
aF0.0653
aF0.063
aF0.0659
aF0.0617
aF0.0647
aF0.0654
aF0.0612
aF0.0642
aF0.0636
aF0.0657
aF0.0628
aF0.0582
aF0.0619
aF0.0599
aF0.0619
aF0.0601
aF0.0618
aF0.0615
aF0.0563
aF0.061
aF0.0609
aF0.0552
aF0.0628
aF0.0599
aF0.0593
aF0.0576
aF0.0539
aF0.0608
aF0.0622
aF0.0591
aF0.0596
aF0.0604
aF0.0586
aF0.0589
aF0.0586
aF0.0629
aF0.0558
aF0.0607
aF0.0597
aF0.0584
aF0.0588
aF0.0554
aF0.0595
aF0.0554
aF0.0615
aF0.0565
aF0.0573
aF0.0563
aF0.0594
aF0.0585
aF0.0567
aF0.0571
aF0.0593
aF0.0578
aF0.0575
aF0.0586
aF0.051
aF0.0571
aF0.0548
aF0.0562
aF0.0592
aF0.0517
aF0.0592
aF0.058
aF0.0577
aF0.0584
aF0.051
aF0.0559
aF0.0582
aF0.054
aF0.0568
aF0.0504
aF0.0568
aF0.0545
aF0.0565
aF0.0555
aF0.057
aF0.0602
aF0.0558
aF0.0585
aF0.0569
aF0.0562
aF0.0593
aF0.0571
aF0.0527
aF0.0549
aF0.0528
aF0.0546
aF0.0556
aF0.0527
aF0.0521
aF0.0539
aF0.057
aF0.0588
aF0.0589
aF0.0509
aF0.0527
aF0.0533
aF0.0531
aF0.0567
aF0.052
aF0.0524
aF0.052
aF0.0515
aF0.0524
aF0.0523
aF0.0492
aF0.0553
aF0.055
aF0.0545
aF0.0516
aF0.0524
aF0.0577
aF0.0558
aF0.0539
aF0.0543
aF0.0519
aF0.0541
aF0.0502
aF0.0557
aF0.0534
aF0.0483
aF0.056
aF0.0581
aF0.0534
aF0.0522
aF0.0481
aF0.0529
aF0.0551
aF0.0526
aF0.0544
aF0.0512
aF0.0516
aF0.0514
aF0.0493
aF0.0533
aF0.0508
aF0.0516
aF0.0531
aF0.0473
aF0.0514
aF0.0471
aF0.0525
aF0.0529
aF0.0505
aF0.0481
aF0.0488
aF0.0551
aF0.052
aF0.0479
aF0.0507
aF0.0484
aF0.0498
aF0.0525
aF0.0501
aF0.0526
aF0.0516
aF0.0524
aF0.0523
aF0.053
aF0.0551
aF0.0513
aF0.0545
aF0.0503
aF0.0538
aF0.0516
aF0.0479
aF0.0538
aF0.0517
aF0.0523
aF0.0524
aF0.0463
aF0.0498
aF0.0536
aF0.0507
aF0.0529
aF0.0458
aF0.0525
aF0.0497
aF0.0503
aF0.0489
aF0.0456
aF0.0543
aF0.0479
aF0.049
aF0.0528
aF0.0506
aF0.0505
aF0.0538
aF0.0494
aF0.0527
aF0.0491
aF0.0504
aF0.0517
aF0.0478
aF0.0478
aF0.0449
aF0.0528
aF0.0474
aF0.0495
aF0.0514
aF0.0409
aF0.0517
aF0.0456
aF0.05
aF0.049
aF0.0463
aF0.0512
aF0.0498
aF0.0518
aF0.0491
aF0.0484
aF0.054
aF0.0504
aF0.0506
aF0.0488
aF0.0435
aF0.0513
aF0.0519
aF0.05
aF0.0505
aF0.0438
aF0.0514
aF0.0506
a.