(lp0
F0.8737
aF0.801
aF0.7607
aF0.7176
aF0.6863
aF0.6529
aF0.6281
aF0.5986
aF0.5698
aF0.5533
aF0.5228
aF0.5033
aF0.4848
aF0.4799
aF0.4556
aF0.4344
aF0.421
aF0.4304
aF0.3998
aF0.4065
aF0.3867
aF0.3847
aF0.3622
aF0.3693
aF0.3475
aF0.3596
aF0.335
aF0.3344
aF0.3266
aF0.3311
aF0.3109
aF0.3114
aF0.321
aF0.3032
aF0.3039
aF0.3048
aF0.2886
aF0.2855
aF0.287
aF0.2759
aF0.283
aF0.285
aF0.26
aF0.2729
aF0.2645
aF0.2582
aF0.2603
aF0.2586
aF0.2527
aF0.2534
aF0.2559
aF0.2493
aF0.2499
aF0.2433
aF0.234
aF0.246
aF0.2455
aF0.2362
aF0.2271
aF0.2318
aF0.229
aF0.2302
aF0.2248
aF0.2227
aF0.2239
aF0.2223
aF0.2221
aF0.2191
aF0.2168
aF0.2181
aF0.2114
aF0.2112
aF0.2211
aF0.2099
aF0.2092
aF0.2094
aF0.1985
aF0.2081
aF0.2076
aF0.2496
aF0.192
aF0.209
aF0.2068
aF0.2411
aF0.1928
aF0.2036
aF0.1951
aF0.228
aF0.1915
aF0.1969
aF0.1918
aF0.2268
aF0.185
aF0.192
aF0.1851
aF0.2142
aF0.1838
aF0.1917
aF0.1895
aF0.205
aF0.187
aF0.1866
aF0.1806
aF0.213
aF0.1779
aF0.1793
aF0.1729
aF0.2017
aF0.1821
aF0.1816
aF0.174
aF0.1981
aF0.1724
aF0.1701
aF0.1768
aF0.1852
aF0.1807
aF0.1787
aF0.1714
aF0.1943
aF0.1691
aF0.1718
aF0.1634
aF0.1821
aF0.165
aF0.1695
aF0.1619
aF0.1874
aF0.1662
aF0.1626
aF0.1629
aF0.1794
aF0.1626
aF0.1588
aF0.1626
aF0.1806
aF0.1623
aF0.1641
aF0.1555
aF0.1787
aF0.1553
aF0.1598
aF0.155
aF0.1707
aF0.1595
aF0.1547
aF0.1547
aF0.1703
aF0.1553
aF0.1503
aF0.1528
aF0.1658
aF0.1517
aF0.151
aF0.1524
aF0.1601
aF0.1439
aF0.148
aF0.1456
aF0.1636
aF0.1499
aF0.1538
aF0.1508
aF0.1577
aF0.1457
aF0.1455
aF0.1352
aF0.1412
aF0.1601
aF0.1987
aF0.1504
aF0.1424
aF0.1491
aF0.1672
aF0.1914
aF0.1473
aF0.1436
aF0.1463
aF0.1519
aF0.1751
aF0.1415
aF0.1407
aF0.1396
aF0.1547
aF0.1777
aF0.1482
aF0.1406
aF0.1403
aF0.1597
aF0.174
aF0.1435
aF0.1372
aF0.143
aF0.1492
aF0.1649
aF0.1419
aF0.1458
aF0.1401
aF0.1477
aF0.1716
aF0.1388
aF0.1374
aF0.1351
aF0.1469
aF0.1654
aF0.1336
aF0.1361
aF0.1369
aF0.1403
aF0.1606
aF0.135
aF0.1411
aF0.1327
aF0.1454
aF0.1613
aF0.1364
aF0.1394
aF0.1346
aF0.1383
aF0.1571
aF0.1345
aF0.1317
aF0.1284
aF0.1416
aF0.1541
aF0.1275
aF0.1298
aF0.132
aF0.1398
aF0.1489
aF0.1317
aF0.1335
aF0.1289
aF0.1433
aF0.1527
aF0.1246
aF0.1334
aF0.1266
aF0.1432
aF0.1463
aF0.126
aF0.1284
aF0.1276
aF0.1347
aF0.1452
aF0.1239
aF0.1301
aF0.1201
aF0.1377
aF0.1417
aF0.1239
aF0.1283
aF0.1232
aF0.1346
aF0.1433
aF0.1287
aF0.1283
aF0.1214
aF0.1347
aF0.1386
aF0.1298
aF0.1266
aF0.1251
aF0.1303
aF0.1415
aF0.1243
aF0.1259
aF0.12
aF0.1336
aF0.1343
aF0.1179
aF0.1223
aF0.1229
aF0.1285
aF0.1344
aF0.1217
aF0.1265
aF0.1296
aF0.1323
aF0.1362
aF0.121
aF0.1192
aF0.1204
aF0.1236
aF0.1322
aF0.1247
aF0.1213
aF0.1164
aF0.1248
aF0.1288
aF0.1172
aF0.1255
aF0.1131
aF0.121
aF0.1304
aF0.1214
aF0.1213
aF0.1193
aF0.1302
aF0.1285
aF0.1151
aF0.1207
aF0.1129
aF0.1267
aF0.1258
aF0.1172
aF0.1229
aF0.1093
aF0.1255
aF0.1257
aF0.1132
aF0.1191
aF0.1135
aF0.1229
aF0.1275
aF0.1158
aF0.1186
aF0.1155
aF0.1181
aF0.1267
aF0.111
aF0.1151
aF0.1156
aF0.1248
aF0.1228
aF0.1159
aF0.1091
aF0.1115
aF0.1195
aF0.1253
aF0.116
aF0.1154
aF0.1094
aF0.1194
aF0.1181
aF0.1101
aF0.1161
aF0.1061
aF0.121
aF0.1159
aF0.1143
aF0.1145
aF0.1103
aF0.1154
aF0.1201
aF0.1185
aF0.1159
aF0.1095
aF0.1122
aF0.1216
aF0.1114
aF0.1143
aF0.113
aF0.1181
aF0.1204
aF0.1066
aF0.1161
aF0.1075
aF0.1183
aF0.1208
aF0.1107
aF0.1052
aF0.113
aF0.1156
aF0.1157
aF0.1042
aF0.1161
aF0.1101
aF0.1148
aF0.1191
aF0.112
aF0.1096
aF0.1039
aF0.1196
aF0.1115
aF0.1095
aF0.1094
aF0.105
aF0.1148
aF0.1185
aF0.1141
aF0.1042
aF0.1043
aF0.1164
aF0.1151
aF0.1089
aF0.1098
aF0.1077
aF0.1088
aF0.1148
aF0.1062
aF0.1134
aF0.1121
aF0.1163
aF0.1108
aF0.1059
aF0.1071
aF0.1041
aF0.1094
aF0.1112
aF0.1083
aF0.1052
aF0.1033
aF0.11
aF0.1118
aF0.1082
aF0.1068
aF0.1029
aF0.11
aF0.1066
aF0.1033
aF0.108
aF0.1066
aF0.1094
aF0.1143
aF0.0997
aF0.1068
aF0.1007
aF0.1068
aF0.1093
aF0.103
aF0.1079
aF0.1001
aF0.1107
aF0.1103
aF0.11
aF0.1106
aF0.1034
aF0.1205
aF0.1023
aF0.101
aF0.105
aF0.1
aF0.1105
aF0.1047
aF0.1022
aF0.0988
aF0.102
aF0.1035
aF0.1073
aF0.1044
aF0.1056
aF0.1007
aF0.106
aF0.1068
aF0.1021
aF0.1074
aF0.1043
aF0.1067
aF0.1107
aF0.1021
aF0.098
aF0.0949
aF0.1043
aF0.1115
aF0.0967
aF0.1004
aF0.0989
aF0.1087
aF0.1033
aF0.1017
aF0.1008
aF0.0937
aF0.1069
aF0.1068
aF0.1024
aF0.1005
aF0.1002
aF0.1024
aF0.103
aF0.1026
aF0.1015
aF0.0946
aF0.1021
aF0.1038
aF0.0982
aF0.0972
aF0.096
aF0.1075
aF0.0981
aF0.0975
aF0.1034
aF0.0927
aF0.1035
aF0.1004
aF0.0993
aF0.0989
aF0.0987
aF0.1018
aF0.0967
aF0.099
aF0.098
aF0.0953
aF0.1029
aF0.1038
aF0.0896
aF0.0887
aF0.0789
aF0.0768
aF0.0719
aF0.0741
aF0.0778
aF0.0743
aF0.072
aF0.0705
aF0.0716
aF0.073
aF0.0665
aF0.0724
aF0.0615
aF0.0677
aF0.0727
aF0.0663
aF0.0672
aF0.0647
aF0.067
aF0.0699
aF0.0673
aF0.072
aF0.0611
aF0.067
aF0.0698
aF0.0606
aF0.068
aF0.0634
aF0.064
aF0.0689
aF0.0638
aF0.0651
aF0.0675
aF0.0624
aF0.0652
aF0.0609
aF0.0679
aF0.0652
aF0.0643
aF0.0643
aF0.0645
aF0.0644
aF0.0627
aF0.0636
aF0.0639
aF0.0579
aF0.0641
aF0.0628
aF0.0631
aF0.064
aF0.062
aF0.0646
aF0.0644
aF0.0595
aF0.061
aF0.0587
aF0.0643
aF0.06
aF0.0618
aF0.0624
aF0.0607
aF0.0666
aF0.0625
aF0.0597
aF0.0595
aF0.0559
aF0.0636
aF0.062
aF0.0581
aF0.0611
aF0.0557
aF0.0628
aF0.0627
aF0.0584
aF0.0623
aF0.0581
aF0.0616
aF0.0621
aF0.0581
aF0.0602
aF0.0593
aF0.0597
aF0.0602
aF0.0587
aF0.0592
aF0.0572
aF0.0619
aF0.0609
aF0.0575
aF0.0576
aF0.057
aF0.0626
aF0.0606
aF0.0586
aF0.0593
aF0.0561
aF0.0602
aF0.0568
aF0.0582
aF0.0568
aF0.057
aF0.0595
aF0.0565
aF0.0543
aF0.0594
aF0.0558
aF0.0599
aF0.0578
a.