(lp0
F0.8533
aF0.7384
aF0.6813
aF0.6413
aF0.6071
aF0.5513
aF0.5291
aF0.5062
aF0.4788
aF0.4678
aF0.4412
aF0.4158
aF0.4008
aF0.3998
aF0.373
aF0.3619
aF0.3449
aF0.3739
aF0.3407
aF0.3588
aF0.3209
aF0.3341
aF0.3064
aF0.3204
aF0.305
aF0.3074
aF0.2953
aF0.297
aF0.2864
aF0.2843
aF0.2788
aF0.2901
aF0.3038
aF0.2718
aF0.2698
aF0.2761
aF0.2523
aF0.2631
aF0.2633
aF0.2456
aF0.2645
aF0.2594
aF0.2522
aF0.2526
aF0.2542
aF0.2424
aF0.2421
aF0.2451
aF0.2385
aF0.2403
aF0.2452
aF0.2278
aF0.2384
aF0.2262
aF0.2241
aF0.2266
aF0.2337
aF0.2206
aF0.2272
aF0.2185
aF0.2116
aF0.2156
aF0.214
aF0.2053
aF0.2072
aF0.2133
aF0.2052
aF0.2153
aF0.2009
aF0.2081
aF0.2063
aF0.1994
aF0.2172
aF0.2003
aF0.2062
aF0.1989
aF0.1939
aF0.2046
aF0.1973
aF0.247
aF0.1945
aF0.1912
aF0.1988
aF0.2375
aF0.1899
aF0.1967
aF0.1999
aF0.2237
aF0.1785
aF0.1901
aF0.19
aF0.2263
aF0.1813
aF0.1907
aF0.1873
aF0.2057
aF0.177
aF0.1883
aF0.1787
aF0.2047
aF0.1812
aF0.1794
aF0.1847
aF0.2068
aF0.1783
aF0.1813
aF0.1768
aF0.2006
aF0.1721
aF0.1734
aF0.1839
aF0.2016
aF0.1799
aF0.1744
aF0.1759
aF0.1866
aF0.1749
aF0.1717
aF0.1708
aF0.1888
aF0.1665
aF0.1669
aF0.1681
aF0.1813
aF0.171
aF0.1674
aF0.1732
aF0.1854
aF0.1603
aF0.163
aF0.1649
aF0.1806
aF0.1614
aF0.1632
aF0.1597
aF0.1778
aF0.1585
aF0.1634
aF0.161
aF0.1732
aF0.1552
aF0.168
aF0.1612
aF0.1794
aF0.1586
aF0.1588
aF0.1562
aF0.1723
aF0.1492
aF0.1546
aF0.1562
aF0.1652
aF0.157
aF0.152
aF0.1479
aF0.1647
aF0.1527
aF0.1529
aF0.146
aF0.1654
aF0.1472
aF0.1514
aF0.158
aF0.1593
aF0.1499
aF0.1472
aF0.1405
aF0.1524
aF0.1566
aF0.1923
aF0.151
aF0.1434
aF0.1538
aF0.1589
aF0.1871
aF0.1517
aF0.1519
aF0.1477
aF0.1589
aF0.177
aF0.1436
aF0.1436
aF0.1524
aF0.153
aF0.1815
aF0.1545
aF0.1424
aF0.1464
aF0.1578
aF0.175
aF0.1483
aF0.142
aF0.1431
aF0.1576
aF0.1684
aF0.1423
aF0.1465
aF0.1468
aF0.1462
aF0.1716
aF0.1389
aF0.1427
aF0.1386
aF0.1505
aF0.1631
aF0.1424
aF0.1459
aF0.1384
aF0.1433
aF0.1583
aF0.1406
aF0.1386
aF0.1353
aF0.1472
aF0.1565
aF0.1373
aF0.1382
aF0.1437
aF0.1413
aF0.1567
aF0.1436
aF0.1422
aF0.1348
aF0.1432
aF0.1539
aF0.1401
aF0.1461
aF0.1379
aF0.1523
aF0.1624
aF0.1403
aF0.1317
aF0.1359
aF0.1424
aF0.156
aF0.1363
aF0.1454
aF0.1319
aF0.1444
aF0.1485
aF0.1342
aF0.1333
aF0.141
aF0.1372
aF0.1445
aF0.131
aF0.1344
aF0.1343
aF0.1444
aF0.154
aF0.1344
aF0.1375
aF0.1279
aF0.1381
aF0.1441
aF0.1334
aF0.1348
aF0.1273
aF0.1396
aF0.1428
aF0.129
aF0.133
aF0.1318
aF0.1344
aF0.1341
aF0.1323
aF0.1311
aF0.1324
aF0.1383
aF0.1371
aF0.1303
aF0.1375
aF0.1306
aF0.1389
aF0.1341
aF0.1267
aF0.1306
aF0.131
aF0.1365
aF0.1372
aF0.1251
aF0.1304
aF0.125
aF0.1305
aF0.1304
aF0.1296
aF0.1275
aF0.1277
aF0.1368
aF0.1411
aF0.1294
aF0.1326
aF0.1237
aF0.1299
aF0.1355
aF0.1335
aF0.1334
aF0.1193
aF0.1356
aF0.1281
aF0.1283
aF0.1359
aF0.1221
aF0.1302
aF0.1275
aF0.1235
aF0.1319
aF0.1286
aF0.1333
aF0.129
aF0.1207
aF0.1276
aF0.1243
aF0.1284
aF0.1312
aF0.1281
aF0.1265
aF0.1231
aF0.1273
aF0.1284
aF0.1196
aF0.1268
aF0.1245
aF0.1333
aF0.1312
aF0.1226
aF0.1273
aF0.1283
aF0.1294
aF0.129
aF0.1219
aF0.122
aF0.1291
aF0.1325
aF0.1308
aF0.1231
aF0.1273
aF0.1222
aF0.1314
aF0.1248
aF0.1217
aF0.1251
aF0.1194
aF0.1294
aF0.1295
aF0.122
aF0.1198
aF0.1214
aF0.1287
aF0.1246
aF0.117
aF0.1167
aF0.1223
aF0.134
aF0.1247
aF0.1185
aF0.1208
aF0.1225
aF0.128
aF0.1185
aF0.1255
aF0.1192
aF0.1208
aF0.1222
aF0.121
aF0.1149
aF0.1212
aF0.1173
aF0.1198
aF0.1185
aF0.1185
aF0.1214
aF0.119
aF0.1235
aF0.1164
aF0.1196
aF0.1202
aF0.1172
aF0.1214
aF0.1244
aF0.1208
aF0.1137
aF0.1108
aF0.1166
aF0.1291
aF0.1184
aF0.1219
aF0.1224
aF0.1239
aF0.1189
aF0.1189
aF0.1241
aF0.1232
aF0.1204
aF0.1192
aF0.1202
aF0.1196
aF0.1207
aF0.126
aF0.1157
aF0.1169
aF0.1167
aF0.1092
aF0.1251
aF0.1249
aF0.124
aF0.1204
aF0.107
aF0.1258
aF0.1212
aF0.117
aF0.1243
aF0.1122
aF0.1278
aF0.1179
aF0.1145
aF0.1173
aF0.1157
aF0.127
aF0.1203
aF0.1132
aF0.1118
aF0.1172
aF0.1227
aF0.1221
aF0.1129
aF0.1174
aF0.1142
aF0.1231
aF0.1157
aF0.1164
aF0.1175
aF0.1165
aF0.1174
aF0.1169
aF0.1091
aF0.1136
aF0.1137
aF0.1187
aF0.1161
aF0.1118
aF0.1167
aF0.112
aF0.1202
aF0.1184
aF0.1142
aF0.1138
aF0.109
aF0.115
aF0.1133
aF0.1145
aF0.1138
aF0.1211
aF0.1161
aF0.1191
aF0.1162
aF0.1119
aF0.108
aF0.121
aF0.1152
aF0.116
aF0.1139
aF0.1172
aF0.1214
aF0.1155
aF0.117
aF0.117
aF0.1112
aF0.1115
aF0.1164
aF0.1142
aF0.1188
aF0.1131
aF0.1207
aF0.1145
aF0.119
aF0.1128
aF0.1087
aF0.1163
aF0.1092
aF0.1136
aF0.1064
aF0.1139
aF0.1176
aF0.1134
aF0.1095
aF0.11
aF0.114
aF0.12
aF0.1134
aF0.1102
aF0.1107
aF0.1092
aF0.1165
aF0.1119
aF0.1285
aF0.0973
aF0.0878
aF0.0893
aF0.0815
aF0.0867
aF0.0864
aF0.0806
aF0.0843
aF0.0765
aF0.0833
aF0.0792
aF0.0752
aF0.0837
aF0.0757
aF0.0771
aF0.0774
aF0.0717
aF0.0731
aF0.0706
aF0.0773
aF0.076
aF0.0736
aF0.0796
aF0.0737
aF0.0763
aF0.075
aF0.0703
aF0.0751
aF0.0687
aF0.0732
aF0.0719
aF0.068
aF0.0741
aF0.0664
aF0.0726
aF0.075
aF0.0686
aF0.0715
aF0.0677
aF0.0715
aF0.0699
aF0.0671
aF0.0721
aF0.066
aF0.0717
aF0.0732
aF0.069
aF0.0706
aF0.0684
aF0.0656
aF0.0687
aF0.068
aF0.0681
aF0.0665
aF0.0683
aF0.0678
aF0.0663
aF0.0707
aF0.064
aF0.0694
aF0.0701
aF0.0664
aF0.0726
aF0.0643
aF0.0676
aF0.0652
aF0.0642
aF0.0656
aF0.0625
aF0.0656
aF0.0672
aF0.0613
aF0.0667
aF0.0602
aF0.0632
aF0.0647
aF0.0677
aF0.063
aF0.0637
aF0.0643
aF0.0634
aF0.0618
aF0.0638
aF0.0615
aF0.0644
aF0.0643
aF0.0599
aF0.0679
aF0.062
aF0.0623
aF0.0626
aF0.0589
aF0.062
aF0.0635
aF0.0619
aF0.0611
aF0.0623
aF0.066
aF0.0566
a.