(lp0
F0.8992
aF0.8859
aF0.859
aF0.8268
aF0.8019
aF0.7921
aF0.7816
aF0.7645
aF0.75
aF0.739
aF0.7189
aF0.7116
aF0.7024
aF0.6962
aF0.6809
aF0.6747
aF0.6579
aF0.66
aF0.6438
aF0.6375
aF0.6235
aF0.608
aF0.5864
aF0.5908
aF0.5606
aF0.5622
aF0.5402
aF0.5316
aF0.5212
aF0.5093
aF0.4968
aF0.4882
aF0.4779
aF0.4666
aF0.4619
aF0.4504
aF0.4446
aF0.436
aF0.4188
aF0.4084
aF0.4162
aF0.3971
aF0.4043
aF0.4042
aF0.3736
aF0.3742
aF0.3739
aF0.3549
aF0.3607
aF0.3592
aF0.3384
aF0.3426
aF0.3494
aF0.3314
aF0.3304
aF0.3333
aF0.3248
aF0.3168
aF0.3159
aF0.3053
aF0.3085
aF0.3016
aF0.2964
aF0.30375
aF0.3007
aF0.2869
aF0.2931
aF0.2884
aF0.2828
aF0.2842
aF0.2818
aF0.2716
aF0.2691
aF0.279
aF0.2667
aF0.2698
aF0.2543
aF0.2727
aF0.2603
aF0.2919
aF0.2543
aF0.2621
aF0.2512
aF0.2808
aF0.2465
aF0.2478
aF0.2404
aF0.2718
aF0.2451
aF0.2448
aF0.2357
aF0.2517
aF0.2389
aF0.2413
aF0.2319
aF0.2549
aF0.2287
aF0.2336
aF0.2272
aF0.2477
aF0.2304
aF0.2312
aF0.2228
aF0.2529
aF0.2242
aF0.2239
aF0.2139
aF0.2375
aF0.2206
aF0.225
aF0.2107
aF0.2255
aF0.2115
aF0.2129
aF0.2116
aF0.2253
aF0.2101
aF0.2121
aF0.2062
aF0.2192
aF0.211
aF0.212
aF0.1995
aF0.2187
aF0.1959
aF0.2058
aF0.1938
aF0.2121
aF0.2015
aF0.2014
aF0.1956
aF0.2151
aF0.194
aF0.2035
aF0.1926
aF0.2045
aF0.1888
aF0.1953
aF0.1862
aF0.2026
aF0.1965
aF0.1936
aF0.1854
aF0.2
aF0.1819
aF0.1859
aF0.179
aF0.1998
aF0.1844
aF0.1894
aF0.1784
aF0.1925
aF0.1798
aF0.184
aF0.1816
aF0.1854
aF0.1767
aF0.1821
aF0.1771
aF0.1845
aF0.1735
aF0.1751
aF0.1711
aF0.1911
aF0.1751
aF0.1737
aF0.1686
aF0.1708
aF0.1732
aF0.2107
aF0.1724
aF0.1694
aF0.1685
aF0.1835
aF0.2081
aF0.1702
aF0.1684
aF0.1636
aF0.1744
aF0.201
aF0.1666
aF0.1661
aF0.1645
aF0.1713
aF0.2007
aF0.1612
aF0.1646
aF0.1638
aF0.1763
aF0.2001
aF0.1644
aF0.1607
aF0.1603
aF0.1689
aF0.1822
aF0.163
aF0.1605
aF0.1681
aF0.1707
aF0.1878
aF0.1619
aF0.1623
aF0.1569
aF0.1674
aF0.1779
aF0.1595
aF0.1562
aF0.1578
aF0.1671
aF0.1768
aF0.1526
aF0.1581
aF0.165
aF0.1619
aF0.1756
aF0.1541
aF0.157
aF0.1568
aF0.1632
aF0.1737
aF0.1474
aF0.1553
aF0.1504
aF0.1608
aF0.1731
aF0.1508
aF0.1541
aF0.1511
aF0.1608
aF0.1664
aF0.1517
aF0.1503
aF0.1506
aF0.1568
aF0.1663
aF0.1457
aF0.1486
aF0.1463
aF0.1565
aF0.1678
aF0.1487
aF0.1429
aF0.1482
aF0.1545
aF0.1657
aF0.1415
aF0.1502
aF0.1506
aF0.154
aF0.16
aF0.149
aF0.1464
aF0.1363
aF0.1512
aF0.1628
aF0.146
aF0.1411
aF0.1384
aF0.1502
aF0.1584
aF0.1396
aF0.139
aF0.135
aF0.1458
aF0.1507
aF0.1418
aF0.1462
aF0.139
aF0.1455
aF0.1487
aF0.139
aF0.1374
aF0.1441
aF0.146
aF0.1435
aF0.1411
aF0.1456
aF0.1354
aF0.1497
aF0.1474
aF0.1415
aF0.1402
aF0.1364
aF0.147
aF0.1497
aF0.1384
aF0.141
aF0.136
aF0.1432
aF0.1491
aF0.1299
aF0.1386
aF0.1382
aF0.1456
aF0.1414
aF0.1349
aF0.1339
aF0.1379
aF0.1394
aF0.1427
aF0.1322
aF0.1329
aF0.1325
aF0.1448
aF0.1411
aF0.1352
aF0.1368
aF0.1334
aF0.142
aF0.1429
aF0.1292
aF0.1303
aF0.1271
aF0.1351
aF0.1387
aF0.1333
aF0.1334
aF0.1253
aF0.1356
aF0.1316
aF0.1295
aF0.1343
aF0.1314
aF0.1397
aF0.1388
aF0.1313
aF0.1275
aF0.1246
aF0.1368
aF0.1361
aF0.1225
aF0.1325
aF0.1298
aF0.1301
aF0.1347
aF0.1254
aF0.126
aF0.1231
aF0.1316
aF0.1275
aF0.1236
aF0.1239
aF0.1272
aF0.1338
aF0.1317
aF0.1278
aF0.1261
aF0.1227
aF0.1335
aF0.1272
aF0.1295
aF0.1316
aF0.1264
aF0.1282
aF0.1298
aF0.1199
aF0.1267
aF0.1238
aF0.1337
aF0.1305
aF0.1266
aF0.1236
aF0.1149
aF0.1266
aF0.128
aF0.1221
aF0.1224
aF0.1244
aF0.1274
aF0.133
aF0.1213
aF0.1222
aF0.1219
aF0.125
aF0.1296
aF0.1239
aF0.1266
aF0.1195
aF0.1261
aF0.1241
aF0.1212
aF0.1208
aF0.1225
aF0.1225
aF0.1227
aF0.1201
aF0.1218
aF0.1179
aF0.1255
aF0.1262
aF0.1177
aF0.1202
aF0.1179
aF0.1241
aF0.1312
aF0.1178
aF0.1207
aF0.116
aF0.12
aF0.1198
aF0.1197
aF0.1217
aF0.1203
aF0.1203
aF0.1197
aF0.117
aF0.1229
aF0.119
aF0.1234
aF0.1183
aF0.1221
aF0.1206
aF0.117
aF0.1207
aF0.1214
aF0.117
aF0.1217
aF0.1169
aF0.1261
aF0.1191
aF0.1164
aF0.1178
aF0.1111
aF0.1221
aF0.1227
aF0.109
aF0.1164
aF0.1095
aF0.1179
aF0.1172
aF0.1162
aF0.1203
aF0.1119
aF0.1241
aF0.1204
aF0.1126
aF0.1137
aF0.1142
aF0.1255
aF0.1185
aF0.1144
aF0.1105
aF0.1086
aF0.1244
aF0.1143
aF0.1131
aF0.1155
aF0.1117
aF0.1203
aF0.1182
aF0.1136
aF0.1157
aF0.1047
aF0.1196
aF0.1119
aF0.1147
aF0.1168
aF0.1055
aF0.1197
aF0.1187
aF0.1087
aF0.1124
aF0.1101
aF0.1184
aF0.115
aF0.1095
aF0.1126
aF0.1088
aF0.1174
aF0.1173
aF0.1159
aF0.115
aF0.1136
aF0.1187
aF0.1126
aF0.1107
aF0.1138
aF0.1075
aF0.1196
aF0.1151
aF0.1132
aF0.1155
aF0.1138
aF0.1155
aF0.1142
aF0.1082
aF0.1132
aF0.1051
aF0.1178
aF0.1046
aF0.1104
aF0.1094
aF0.1059
aF0.1133
aF0.1157
aF0.1108
aF0.0972
aF0.0844
aF0.0944
aF0.0871
aF0.0896
aF0.0884
aF0.0856
aF0.0882
aF0.0841
aF0.0841
aF0.0835
aF0.0825
aF0.0864
aF0.0825
aF0.0847
aF0.082
aF0.0829
aF0.0837
aF0.0814
aF0.0794
aF0.0863
aF0.078
aF0.0826
aF0.0785
aF0.0772
aF0.0818
aF0.0807
aF0.0803
aF0.0816
aF0.0785
aF0.0821
aF0.0767
aF0.0805
aF0.0804
aF0.0769
aF0.0802
aF0.0781
aF0.0812
aF0.0755
aF0.0817
aF0.0772
aF0.0752
aF0.0796
aF0.0736
aF0.0769
aF0.0797
aF0.0747
aF0.0803
aF0.0761
aF0.0719
aF0.0763
aF0.074
aF0.0757
aF0.0793
aF0.074
aF0.0797
aF0.0715
aF0.0779
aF0.0757
aF0.0756
aF0.0752
aF0.0741
aF0.0782
aF0.0718
aF0.0768
aF0.0745
aF0.0738
aF0.0798
aF0.0784
aF0.0722
aF0.0734
aF0.0761
aF0.0754
aF0.0729
aF0.072
aF0.0736
aF0.0738
aF0.0771
aF0.074
aF0.0739
aF0.0754
aF0.0707
aF0.0784
aF0.0778
aF0.0784
aF0.07
aF0.071
aF0.0766
aF0.0737
aF0.0751
aF0.0746
aF0.0693
aF0.0747
aF0.0709
aF0.0758
aF0.0737
aF0.0734
aF0.0776
aF0.0716
aF0.0731
aF0.0735
aF0.0685
aF0.0791
aF0.0699
aF0.0756
aF0.0768
aF0.07
aF0.074
aF0.0728
aF0.069
aF0.0714
aF0.0728
aF0.074
aF0.0678
aF0.0717
aF0.0689
aF0.0708
aF0.0756
aF0.0759
aF0.0732
aF0.0767
aF0.0689
aF0.0771
aF0.0701
aF0.0734
aF0.0741
aF0.0669
aF0.0744
aF0.0743
aF0.0713
aF0.0726
aF0.0649
aF0.0778
aF0.0713
aF0.0687
aF0.0696
aF0.0695
aF0.0764
aF0.0683
aF0.0712
aF0.0703
aF0.0699
aF0.0736
aF0.0705
aF0.0702
aF0.0718
aF0.0708
aF0.0725
aF0.0716
aF0.0712
aF0.0665
aF0.0705
aF0.0718
aF0.0699
aF0.069
aF0.0676
aF0.0675
aF0.0734
aF0.0737
aF0.0698
aF0.0667
aF0.0686
aF0.0733
aF0.069
aF0.0654
aF0.0708
aF0.0676
aF0.0735
aF0.0712
aF0.0695
aF0.0692
aF0.0692
aF0.0741
aF0.0701
aF0.067
aF0.0688
aF0.0699
aF0.0761
aF0.0693
aF0.0723
aF0.0684
aF0.0719
aF0.0713
aF0.0692
aF0.0678
aF0.0698
aF0.0676
aF0.0721
aF0.0702
aF0.0647
aF0.0697
aF0.0609
aF0.0707
aF0.0698
aF0.065
aF0.071
aF0.0674
aF0.0717
aF0.0712
aF0.0637
aF0.0673
aF0.067
aF0.0715
aF0.0715
aF0.0669
aF0.0677
aF0.0667
aF0.0716
aF0.0665
aF0.066
aF0.0642
aF0.0678
aF0.0721
aF0.0681
aF0.0638
aF0.0679
aF0.0659
aF0.0704
aF0.0664
aF0.0631
aF0.0691
aF0.065
aF0.0728
aF0.0634
aF0.0683
aF0.066
aF0.0648
aF0.0697
aF0.0695
aF0.0659
aF0.0673
aF0.0622
aF0.0683
aF0.066
aF0.0637
aF0.0674
aF0.0648
aF0.0711
aF0.0699
aF0.0683
aF0.0701
aF0.0627
aF0.0673
aF0.0654
aF0.0675
aF0.0663
aF0.0654
aF0.0712
aF0.067
aF0.0667
aF0.0696
aF0.0673
aF0.0723
aF0.0674
aF0.0681
aF0.0666
aF0.0664
aF0.0696
aF0.066
aF0.0661
aF0.067
aF0.0615
aF0.071
aF0.0661
aF0.0628
aF0.0673
aF0.0647
aF0.0683
aF0.0663
aF0.0663
aF0.067
aF0.0667
aF0.0712
aF0.0674
aF0.0627
aF0.0679
aF0.0639
aF0.0674
aF0.0629
aF0.0629
aF0.0692
aF0.0638
aF0.0704
aF0.0641
aF0.0614
aF0.0667
aF0.0645
aF0.0672
aF0.0652
aF0.0679
aF0.0639
aF0.0607
aF0.0677
aF0.066
aF0.0628
aF0.0667
aF0.0649
aF0.0673
aF0.0653
aF0.0624
aF0.0643
aF0.0611
aF0.0623
aF0.0648
aF0.0611
aF0.0628
aF0.061
aF0.0672
aF0.0634
aF0.0646
aF0.0647
aF0.0616
aF0.0684
aF0.0632
aF0.0655
aF0.0635
aF0.0608
aF0.0673
aF0.0663
aF0.0645
aF0.0652
aF0.0631
aF0.0673
aF0.0627
aF0.0613
aF0.065
aF0.0618
aF0.0698
aF0.0659
aF0.0666
aF0.0607
aF0.0613
aF0.0717
aF0.0641
aF0.0607
aF0.0647
aF0.0653
aF0.066
aF0.0639
aF0.061
aF0.0645
aF0.0615
aF0.0665
aF0.0633
aF0.0636
aF0.0643
aF0.0618
aF0.0669
aF0.0666
a.