(lp0
F0.8725
aF0.7834
aF0.7248
aF0.6804
aF0.6394
aF0.6083
aF0.575
aF0.5421
aF0.5135
aF0.4975
aF0.4888
aF0.4622
aF0.4377
aF0.4219
aF0.4055
aF0.3884
aF0.3797
aF0.396
aF0.366
aF0.3703
aF0.3374
aF0.3557
aF0.3351
aF0.34
aF0.3155
aF0.3183
aF0.309
aF0.2999
aF0.295
aF0.3033
aF0.2789
aF0.2965
aF0.3044
aF0.2777
aF0.2852
aF0.285
aF0.2745
aF0.2842
aF0.2719
aF0.2677
aF0.2697
aF0.2625
aF0.2473
aF0.2586
aF0.2617
aF0.2469
aF0.2483
aF0.2461
aF0.2417
aF0.2383
aF0.2468
aF0.2357
aF0.2406
aF0.2329
aF0.2262
aF0.2343
aF0.2289
aF0.227
aF0.2252
aF0.2288
aF0.2197
aF0.2176
aF0.2191
aF0.218
aF0.2114
aF0.2144
aF0.2088
aF0.2101
aF0.2094
aF0.2073
aF0.2158
aF0.2248
aF0.1995
aF0.2137
aF0.2147
aF0.2011
aF0.1951
aF0.2087
aF0.1989
aF0.2355
aF0.1961
aF0.2008
aF0.1969
aF0.2368
aF0.195
aF0.2009
aF0.1931
aF0.2275
aF0.1895
aF0.1963
aF0.1919
aF0.2174
aF0.1855
aF0.2023
aF0.1858
aF0.2117
aF0.1778
aF0.1877
aF0.1846
aF0.2101
aF0.1835
aF0.1841
aF0.1793
aF0.203
aF0.1818
aF0.1846
aF0.1831
aF0.2122
aF0.1806
aF0.1811
aF0.1721
aF0.1949
aF0.1763
aF0.1748
aF0.1726
aF0.1907
aF0.1716
aF0.1734
aF0.1699
aF0.1938
aF0.1756
aF0.1728
aF0.1741
aF0.1832
aF0.1658
aF0.1759
aF0.1597
aF0.1865
aF0.1642
aF0.1797
aF0.1614
aF0.1863
aF0.1601
aF0.1634
aF0.174
aF0.1814
aF0.1629
aF0.16
aF0.1617
aF0.1771
aF0.1575
aF0.1724
aF0.1554
aF0.1855
aF0.1505
aF0.1683
aF0.1514
aF0.1746
aF0.1582
aF0.1549
aF0.1541
aF0.1702
aF0.1566
aF0.1609
aF0.1505
aF0.1835
aF0.1559
aF0.158
aF0.1545
aF0.1732
aF0.1519
aF0.1558
aF0.1478
aF0.168
aF0.1519
aF0.1496
aF0.1476
aF0.1453
aF0.1642
aF0.2005
aF0.1602
aF0.149
aF0.1501
aF0.1578
aF0.1849
aF0.1526
aF0.1469
aF0.1453
aF0.1559
aF0.1845
aF0.1522
aF0.1545
aF0.143
aF0.1609
aF0.1784
aF0.1444
aF0.1444
aF0.1433
aF0.1613
aF0.1669
aF0.1515
aF0.1514
aF0.1433
aF0.1533
aF0.1699
aF0.1385
aF0.1426
aF0.1389
aF0.1571
aF0.1659
aF0.1456
aF0.1452
aF0.1561
aF0.1559
aF0.1619
aF0.1436
aF0.1423
aF0.1379
aF0.1603
aF0.1583
aF0.14
aF0.1333
aF0.1413
aF0.1491
aF0.1575
aF0.1317
aF0.1375
aF0.1351
aF0.1481
aF0.1566
aF0.1377
aF0.1385
aF0.1401
aF0.146
aF0.153
aF0.1366
aF0.1428
aF0.1374
aF0.147
aF0.1513
aF0.1398
aF0.142
aF0.1322
aF0.1442
aF0.1469
aF0.1343
aF0.1406
aF0.1447
aF0.1602
aF0.1496
aF0.1358
aF0.1346
aF0.1305
aF0.149
aF0.154
aF0.1325
aF0.1368
aF0.1318
aF0.1418
aF0.1479
aF0.1387
aF0.1337
aF0.1345
aF0.1446
aF0.1446
aF0.1428
aF0.1381
aF0.1342
aF0.1403
aF0.1382
aF0.1308
aF0.1368
aF0.1354
aF0.1444
aF0.1466
aF0.1402
aF0.1296
aF0.1337
aF0.1431
aF0.1372
aF0.1272
aF0.1349
aF0.1303
aF0.1433
aF0.1409
aF0.1318
aF0.1279
aF0.1293
aF0.1389
aF0.1365
aF0.1413
aF0.1369
aF0.131
aF0.1392
aF0.1368
aF0.1332
aF0.1271
aF0.1205
aF0.1368
aF0.1333
aF0.1324
aF0.1272
aF0.1264
aF0.1293
aF0.1414
aF0.1264
aF0.1252
aF0.1329
aF0.1315
aF0.1346
aF0.1273
aF0.132
aF0.129
aF0.1365
aF0.1355
aF0.1267
aF0.1291
aF0.1265
aF0.136
aF0.1332
aF0.1238
aF0.1324
aF0.124
aF0.1247
aF0.1303
aF0.1283
aF0.125
aF0.1256
aF0.1316
aF0.1279
aF0.1234
aF0.1241
aF0.1213
aF0.1256
aF0.1282
aF0.1238
aF0.1341
aF0.1273
aF0.1297
aF0.1311
aF0.1282
aF0.1288
aF0.1218
aF0.1363
aF0.1279
aF0.1212
aF0.1211
aF0.1232
aF0.1258
aF0.1249
aF0.1188
aF0.1237
aF0.1208
aF0.1238
aF0.1291
aF0.1262
aF0.1238
aF0.1162
aF0.1259
aF0.1257
aF0.122
aF0.1213
aF0.1194
aF0.1334
aF0.1322
aF0.1177
aF0.125
aF0.1134
aF0.133
aF0.1178
aF0.1215
aF0.1214
aF0.1206
aF0.1429
aF0.1213
aF0.1186
aF0.122
aF0.1177
aF0.1267
aF0.1233
aF0.1188
aF0.1188
aF0.1161
aF0.1324
aF0.1222
aF0.1162
aF0.1207
aF0.1159
aF0.1346
aF0.1221
aF0.1125
aF0.1214
aF0.121
aF0.1288
aF0.1215
aF0.1214
aF0.1237
aF0.1145
aF0.1281
aF0.1214
aF0.1172
aF0.1181
aF0.1091
aF0.1254
aF0.1153
aF0.1248
aF0.1284
aF0.1116
aF0.1258
aF0.1212
aF0.1205
aF0.1193
aF0.1102
aF0.1227
aF0.1215
aF0.1267
aF0.1204
aF0.1124
aF0.1268
aF0.116
aF0.1201
aF0.1132
aF0.1137
aF0.1242
aF0.1313
aF0.1194
aF0.1149
aF0.1193
aF0.119
aF0.1225
aF0.1177
aF0.1246
aF0.1167
aF0.1205
aF0.1169
aF0.1186
aF0.1171
aF0.1141
aF0.121
aF0.1176
aF0.1191
aF0.113
aF0.1204
aF0.125
aF0.1162
aF0.1163
aF0.1209
aF0.1057
aF0.1225
aF0.1173
aF0.1145
aF0.1125
aF0.1078
aF0.1201
aF0.1148
aF0.1123
aF0.1091
aF0.1173
aF0.1157
aF0.1194
aF0.1042
aF0.1206
aF0.1092
aF0.1218
aF0.1155
aF0.1214
aF0.1197
aF0.1131
aF0.1219
aF0.1094
aF0.1133
aF0.1135
aF0.114
aF0.1244
aF0.1111
aF0.1131
aF0.1144
aF0.1093
aF0.1139
aF0.1105
aF0.1101
aF0.1166
aF0.1155
aF0.1277
aF0.1129
aF0.1139
aF0.1082
aF0.1085
aF0.1131
aF0.1155
aF0.1179
aF0.113
aF0.1144
aF0.1176
aF0.1153
aF0.1118
aF0.1126
aF0.108
aF0.114
aF0.1117
aF0.1165
aF0.1145
aF0.1052
aF0.1234
aF0.1128
aF0.1218
aF0.0966
aF0.0867
aF0.0877
aF0.0853
aF0.0852
aF0.0854
aF0.0816
aF0.0809
aF0.0753
aF0.0834
aF0.0797
aF0.0772
aF0.0808
aF0.0759
aF0.0794
aF0.0762
aF0.0714
aF0.078
aF0.0715
aF0.0805
aF0.0706
aF0.0704
aF0.077
aF0.0727
aF0.0763
aF0.071
aF0.0682
aF0.0744
aF0.0716
aF0.0731
aF0.0787
aF0.0718
aF0.0737
aF0.0715
aF0.0747
aF0.0755
aF0.0689
aF0.0743
aF0.0695
aF0.0717
aF0.0714
aF0.0673
aF0.0723
aF0.0699
aF0.0739
aF0.068
aF0.0649
aF0.0712
aF0.0695
aF0.0713
aF0.0679
aF0.07
aF0.0716
aF0.0685
aF0.0686
aF0.0676
aF0.0659
aF0.0658
aF0.0661
aF0.069
aF0.0676
aF0.066
aF0.0699
aF0.0639
aF0.0713
aF0.0706
aF0.0651
aF0.0673
aF0.0677
aF0.0713
aF0.0653
aF0.0648
aF0.0722
aF0.0672
aF0.0688
aF0.0658
aF0.0628
aF0.0722
aF0.0644
a.