(lp0
F0.883
aF0.8103
aF0.7738
aF0.732
aF0.6825
aF0.6481
aF0.6073
aF0.57
aF0.5288
aF0.5027
aF0.4782
aF0.4635
aF0.434
aF0.4175
aF0.4032
aF0.3905
aF0.3833
aF0.3876
aF0.3552
aF0.3785
aF0.3514
aF0.3621
aF0.3405
aF0.3515
aF0.3261
aF0.3352
aF0.3101
aF0.3203
aF0.307
aF0.3168
aF0.3029
aF0.309
aF0.3163
aF0.2957
aF0.2944
aF0.3085
aF0.2826
aF0.2872
aF0.2915
aF0.2818
aF0.2765
aF0.2758
aF0.268
aF0.2704
aF0.2703
aF0.2655
aF0.2678
aF0.2682
aF0.2548
aF0.2577
aF0.2678
aF0.251
aF0.2615
aF0.2538
aF0.2488
aF0.2554
aF0.2502
aF0.2526
aF0.2466
aF0.2458
aF0.2425
aF0.2422
aF0.2363
aF0.2375
aF0.2394
aF0.2369
aF0.2241
aF0.2291
aF0.2267
aF0.2238
aF0.2279
aF0.2269
aF0.2214
aF0.2309
aF0.2303
aF0.2209
aF0.2138
aF0.2235
aF0.2195
aF0.2693
aF0.2158
aF0.2187
aF0.2103
aF0.2483
aF0.211
aF0.2204
aF0.2138
aF0.2464
aF0.208
aF0.2106
aF0.2044
aF0.2296
aF0.2024
aF0.2167
aF0.2046
aF0.2429
aF0.2045
aF0.2097
aF0.2008
aF0.2328
aF0.2046
aF0.2079
aF0.1919
aF0.23
aF0.194
aF0.2045
aF0.1963
aF0.2178
aF0.1936
aF0.2019
aF0.1923
aF0.2159
aF0.1965
aF0.1971
aF0.1945
aF0.2221
aF0.1901
aF0.2011
aF0.1883
aF0.2115
aF0.189
aF0.1943
aF0.183
aF0.2034
aF0.1875
aF0.1941
aF0.1917
aF0.2091
aF0.1839
aF0.1862
aF0.178
aF0.2081
aF0.1857
aF0.1849
aF0.1762
aF0.2066
aF0.1818
aF0.184
aF0.1826
aF0.2031
aF0.1813
aF0.1809
aF0.1779
aF0.1971
aF0.184
aF0.1835
aF0.1758
aF0.1936
aF0.1741
aF0.1804
aF0.1717
aF0.1983
aF0.1694
aF0.1816
aF0.1781
aF0.1856
aF0.1755
aF0.1767
aF0.1703
aF0.1899
aF0.1696
aF0.169
aF0.1683
aF0.1864
aF0.1671
aF0.173
aF0.1655
aF0.1665
aF0.1825
aF0.2129
aF0.1796
aF0.1691
aF0.1681
aF0.1841
aF0.1964
aF0.1676
aF0.1607
aF0.1661
aF0.1766
aF0.1946
aF0.1725
aF0.1713
aF0.171
aF0.1806
aF0.1966
aF0.1682
aF0.1662
aF0.1627
aF0.1807
aF0.1926
aF0.1686
aF0.162
aF0.1635
aF0.1734
aF0.1865
aF0.1622
aF0.1655
aF0.1606
aF0.1763
aF0.1851
aF0.168
aF0.1629
aF0.1597
aF0.1757
aF0.1797
aF0.163
aF0.165
aF0.1574
aF0.1731
aF0.1741
aF0.1675
aF0.1582
aF0.1647
aF0.1674
aF0.1716
aF0.1638
aF0.1604
aF0.1604
aF0.1627
aF0.1701
aF0.1601
aF0.1604
aF0.1596
aF0.1628
aF0.175
aF0.1542
aF0.1556
aF0.1547
aF0.1677
aF0.1718
aF0.1574
aF0.1559
aF0.1616
aF0.168
aF0.1695
aF0.1556
aF0.1542
aF0.1559
aF0.1705
aF0.1654
aF0.1614
aF0.1569
aF0.1496
aF0.1657
aF0.1682
aF0.1479
aF0.1522
aF0.1473
aF0.1619
aF0.1586
aF0.1519
aF0.1543
aF0.1473
aF0.163
aF0.1616
aF0.1487
aF0.1502
aF0.1473
aF0.1629
aF0.1612
aF0.153
aF0.1486
aF0.1525
aF0.1659
aF0.1621
aF0.1452
aF0.1491
aF0.1504
aF0.1616
aF0.1569
aF0.1543
aF0.1528
aF0.1468
aF0.1601
aF0.1569
aF0.1501
aF0.1417
aF0.1494
aF0.1573
aF0.1553
aF0.1475
aF0.1509
aF0.149
aF0.1557
aF0.1589
aF0.1472
aF0.1498
aF0.1403
aF0.1536
aF0.1536
aF0.147
aF0.1463
aF0.1571
aF0.1597
aF0.1566
aF0.1488
aF0.1452
aF0.1442
aF0.1498
aF0.1517
aF0.1428
aF0.1492
aF0.1452
aF0.151
aF0.1537
aF0.1454
aF0.1477
aF0.1436
aF0.1511
aF0.1485
aF0.1414
aF0.143
aF0.1405
aF0.1506
aF0.1449
aF0.1403
aF0.1424
aF0.1412
aF0.15
aF0.1501
aF0.1408
aF0.1423
aF0.1417
aF0.1492
aF0.1529
aF0.147
aF0.1463
aF0.1431
aF0.1534
aF0.1487
aF0.1406
aF0.1435
aF0.1381
aF0.1459
aF0.1474
aF0.1407
aF0.1416
aF0.1378
aF0.1433
aF0.1388
aF0.1401
aF0.1424
aF0.1428
aF0.1506
aF0.1459
aF0.1367
aF0.1437
aF0.1403
aF0.1503
aF0.1461
aF0.1411
aF0.1369
aF0.1341
aF0.1436
aF0.1476
aF0.1381
aF0.1429
aF0.14
aF0.147
aF0.1366
aF0.1337
aF0.1408
aF0.1362
aF0.1479
aF0.1371
aF0.1341
aF0.1382
aF0.1348
aF0.1425
aF0.1397
aF0.136
aF0.1463
aF0.1353
aF0.1443
aF0.1444
aF0.1319
aF0.1366
aF0.1352
aF0.1462
aF0.1348
aF0.1358
aF0.1374
aF0.1379
aF0.1398
aF0.1386
aF0.132
aF0.1432
aF0.1376
aF0.1404
aF0.1491
aF0.1326
aF0.1343
aF0.1337
aF0.1456
aF0.134
aF0.1356
aF0.1395
aF0.1329
aF0.1432
aF0.1369
aF0.1399
aF0.1355
aF0.1336
aF0.1425
aF0.1335
aF0.1375
aF0.1439
aF0.1343
aF0.1413
aF0.1377
aF0.1378
aF0.1382
aF0.1295
aF0.1459
aF0.1406
aF0.1374
aF0.1366
aF0.1339
aF0.145
aF0.135
aF0.1337
aF0.1325
aF0.1272
aF0.1358
aF0.1326
aF0.1328
aF0.1373
aF0.1309
aF0.1448
aF0.1303
aF0.1319
aF0.1393
aF0.1355
aF0.1416
aF0.1342
aF0.1345
aF0.143
aF0.1356
aF0.1473
aF0.1347
aF0.1313
aF0.137
aF0.1303
aF0.134
aF0.1356
aF0.1308
aF0.1214
aF0.1216
aF0.1275
aF0.1189
aF0.1184
aF0.1202
aF0.1191
aF0.1239
aF0.1202
aF0.1194
aF0.1203
aF0.1194
aF0.1242
aF0.1187
aF0.1208
aF0.119
aF0.1213
aF0.1202
aF0.1214
aF0.1164
aF0.1239
aF0.1155
aF0.1227
aF0.1176
aF0.1158
aF0.1158
aF0.1152
aF0.12
aF0.116
aF0.1124
aF0.1185
aF0.1122
aF0.1168
aF0.1149
aF0.1154
aF0.1143
aF0.1134
aF0.12
aF0.1163
aF0.1103
aF0.1183
aF0.1127
aF0.122
aF0.1136
aF0.1087
aF0.1107
aF0.1133
aF0.1182
aF0.1152
aF0.1249
aF0.0993
aF0.0971
aF0.1017
aF0.0911
aF0.0934
aF0.0924
aF0.0886
aF0.0958
aF0.0847
aF0.0954
aF0.0921
aF0.0897
aF0.0896
aF0.0862
aF0.0891
aF0.088
aF0.0879
aF0.089
aF0.0875
aF0.0884
aF0.0869
aF0.0867
aF0.0887
aF0.081
aF0.0831
aF0.0903
aF0.0849
aF0.0883
aF0.0835
aF0.0872
aF0.0887
aF0.0813
aF0.089
aF0.0822
aF0.0851
aF0.0868
aF0.0825
aF0.0916
aF0.0827
aF0.0831
aF0.0806
aF0.0841
aF0.0837
aF0.0807
aF0.0842
aF0.0877
aF0.0803
aF0.0861
aF0.0825
aF0.0839
aF0.0846
aF0.0802
aF0.0859
aF0.0806
aF0.0829
aF0.0824
aF0.0809
aF0.0841
aF0.0822
aF0.0835
aF0.0822
aF0.0778
aF0.0844
aF0.0789
aF0.08
aF0.0801
aF0.0752
aF0.081
aF0.0753
aF0.0822
aF0.0822
aF0.0753
aF0.0829
aF0.0766
aF0.0808
aF0.0778
aF0.0769
aF0.0813
aF0.0782
aF0.0795
aF0.0807
aF0.0787
aF0.0841
aF0.079
aF0.0803
aF0.083
aF0.0771
aF0.0799
aF0.0759
aF0.0789
aF0.0806
aF0.0773
aF0.0837
aF0.074
aF0.0796
aF0.0807
aF0.0776
aF0.0829
aF0.0767
aF0.0764
aF0.0797
aF0.0799
aF0.0816
aF0.0779
aF0.0745
aF0.0827
aF0.0739
aF0.0786
aF0.0785
aF0.0761
aF0.0817
aF0.076
aF0.0828
aF0.0769
aF0.0757
aF0.0731
aF0.0746
aF0.0838
aF0.0738
aF0.0761
aF0.0763
aF0.0748
aF0.0804
aF0.076
aF0.0752
aF0.0796
aF0.0751
aF0.078
aF0.0757
aF0.0783
aF0.0753
aF0.0756
aF0.0811
aF0.0787
aF0.0791
aF0.0762
aF0.0767
aF0.0798
aF0.072
aF0.0741
aF0.0718
aF0.0759
aF0.0796
aF0.0714
aF0.0759
aF0.0732
aF0.0748
aF0.0801
aF0.0702
aF0.0709
aF0.0759
aF0.0691
aF0.0777
aF0.075
aF0.0724
aF0.0717
aF0.0645
aF0.0778
aF0.0699
aF0.0722
aF0.0734
aF0.0747
aF0.0739
aF0.0689
aF0.072
aF0.0747
aF0.072
aF0.0773
aF0.0744
aF0.0739
aF0.072
aF0.0724
aF0.0777
aF0.0721
aF0.0704
aF0.074
aF0.068
aF0.0733
aF0.0761
aF0.071
aF0.0739
aF0.0722
aF0.0759
aF0.0695
aF0.0739
aF0.0711
aF0.0658
aF0.0769
aF0.0696
aF0.0707
aF0.0711
aF0.0712
aF0.0757
aF0.0728
aF0.0755
aF0.0746
aF0.0705
aF0.0774
aF0.0713
aF0.0699
aF0.0697
aF0.0704
aF0.0751
aF0.0669
aF0.0698
aF0.0733
aF0.071
aF0.0705
aF0.0697
aF0.0715
aF0.0705
aF0.0689
aF0.074
aF0.0693
aF0.0719
aF0.0707
aF0.0686
aF0.0725
aF0.0706
aF0.0692
aF0.0712
aF0.0715
aF0.0731
aF0.0729
aF0.0721
aF0.0697
aF0.0667
aF0.0713
aF0.0718
aF0.0653
aF0.0707
aF0.0665
aF0.0719
aF0.0702
aF0.0682
aF0.0702
aF0.069
aF0.0723
aF0.0692
aF0.069
aF0.0707
aF0.0702
aF0.0717
aF0.0694
aF0.0716
aF0.07
aF0.0656
aF0.0733
aF0.0681
aF0.075
aF0.0737
aF0.0672
aF0.0733
aF0.0666
aF0.0674
aF0.0672
aF0.07
aF0.0757
aF0.0667
aF0.0681
aF0.0668
aF0.0657
aF0.0711
aF0.0701
aF0.0692
aF0.0722
aF0.0683
aF0.0697
aF0.0676
aF0.0709
aF0.0657
aF0.0672
aF0.0739
aF0.067
aF0.0685
aF0.0698
aF0.07
aF0.0683
aF0.0684
aF0.0731
aF0.0677
aF0.0691
aF0.0731
aF0.0665
aF0.0673
aF0.0708
aF0.0622
aF0.0732
aF0.0651
aF0.0655
aF0.0695
aF0.0661
aF0.074
aF0.0676
aF0.0688
aF0.0709
aF0.0712
aF0.0736
aF0.0682
aF0.0665
aF0.0689
aF0.0679
aF0.077
aF0.0672
aF0.0671
aF0.0699
aF0.069
aF0.072
aF0.0686
a.