(lp0
F0.9031
aF0.8988
aF0.8888
aF0.8325
aF0.8054
aF0.779
aF0.7541
aF0.7243
aF0.7115
aF0.6843
aF0.6663
aF0.6394
aF0.6149
aF0.5938
aF0.5645
aF0.5317
aF0.5099
aF0.5144
aF0.4707
aF0.4759
aF0.4546
aF0.4367
aF0.4206
aF0.4115
aF0.3888
aF0.3802
aF0.3684
aF0.37
aF0.3507
aF0.3377
aF0.3298
aF0.3337
aF0.3311
aF0.3165
aF0.3193
aF0.3049
aF0.3164
aF0.3058
aF0.292
aF0.2869
aF0.2798
aF0.2794
aF0.2761
aF0.2791
aF0.2701
aF0.2713
aF0.267
aF0.2676
aF0.2643
aF0.2569
aF0.2542
aF0.2596
aF0.2493
aF0.2471
aF0.249
aF0.2447
aF0.2393
aF0.2465
aF0.239
aF0.2439
aF0.231
aF0.2392
aF0.2265
aF0.2311
aF0.2342
aF0.2197
aF0.2168
aF0.2245
aF0.2122
aF0.2139
aF0.2276
aF0.2195
aF0.2143
aF0.2213
aF0.209
aF0.2095
aF0.1997
aF0.2142
aF0.2116
aF0.2506
aF0.205
aF0.2166
aF0.2078
aF0.2389
aF0.2062
aF0.2024
aF0.2115
aF0.2328
aF0.1955
aF0.2039
aF0.2059
aF0.2258
aF0.1947
aF0.1969
aF0.1909
aF0.2268
aF0.1997
aF0.1927
aF0.1872
aF0.2113
aF0.1957
aF0.1926
aF0.1854
aF0.2136
aF0.1815
aF0.1878
aF0.1847
aF0.2111
aF0.1812
aF0.1892
aF0.1721
aF0.1973
aF0.1727
aF0.1864
aF0.1791
aF0.2012
aF0.1797
aF0.1836
aF0.1697
aF0.1924
aF0.1785
aF0.1712
aF0.1741
aF0.1997
aF0.1722
aF0.1757
aF0.1707
aF0.1886
aF0.1691
aF0.179
aF0.1664
aF0.1923
aF0.1625
aF0.1695
aF0.1646
aF0.1858
aF0.1612
aF0.1698
aF0.1582
aF0.1812
aF0.1615
aF0.1728
aF0.1579
aF0.1826
aF0.1618
aF0.1749
aF0.1585
aF0.175
aF0.157
aF0.1646
aF0.1564
aF0.1754
aF0.1594
aF0.1605
aF0.1512
aF0.1861
aF0.1625
aF0.1646
aF0.1568
aF0.1707
aF0.1524
aF0.1594
aF0.148
aF0.1661
aF0.1516
aF0.1556
aF0.1447
aF0.1473
aF0.1753
aF0.2002
aF0.1531
aF0.1561
aF0.1533
aF0.1652
aF0.1929
aF0.1576
aF0.1528
aF0.1499
aF0.1588
aF0.1846
aF0.1504
aF0.1521
aF0.1484
aF0.1654
aF0.1821
aF0.1472
aF0.1487
aF0.1458
aF0.1689
aF0.1787
aF0.1539
aF0.1511
aF0.1463
aF0.1604
aF0.1744
aF0.1525
aF0.1537
aF0.14
aF0.1607
aF0.1685
aF0.144
aF0.1476
aF0.1496
aF0.1577
aF0.1619
aF0.1507
aF0.1456
aF0.1484
aF0.1589
aF0.1644
aF0.1451
aF0.145
aF0.1425
aF0.1577
aF0.1641
aF0.1492
aF0.1442
aF0.1371
aF0.152
aF0.1565
aF0.1361
aF0.1458
aF0.1345
aF0.1481
aF0.1717
aF0.1417
aF0.1462
aF0.1375
aF0.151
aF0.1618
aF0.1433
aF0.1456
aF0.1373
aF0.1462
aF0.1501
aF0.1381
aF0.1393
aF0.1397
aF0.1485
aF0.155
aF0.1346
aF0.141
aF0.1298
aF0.144
aF0.1551
aF0.1341
aF0.1362
aF0.1324
aF0.1419
aF0.1497
aF0.1368
aF0.1374
aF0.1297
aF0.1511
aF0.1518
aF0.1371
aF0.1378
aF0.1319
aF0.145
aF0.147
aF0.1348
aF0.1343
aF0.1364
aF0.1442
aF0.1452
aF0.132
aF0.1325
aF0.1327
aF0.1434
aF0.1413
aF0.1341
aF0.1285
aF0.1348
aF0.1441
aF0.1444
aF0.1318
aF0.1312
aF0.1277
aF0.1452
aF0.1382
aF0.1308
aF0.1306
aF0.1268
aF0.1377
aF0.1366
aF0.1301
aF0.134
aF0.1255
aF0.1402
aF0.1392
aF0.1353
aF0.1325
aF0.1288
aF0.1375
aF0.1383
aF0.1303
aF0.126
aF0.1284
aF0.1344
aF0.1396
aF0.1283
aF0.1325
aF0.1237
aF0.1389
aF0.1356
aF0.1339
aF0.1327
aF0.1263
aF0.1364
aF0.1335
aF0.1276
aF0.1258
aF0.12
aF0.1348
aF0.1293
aF0.1343
aF0.1313
aF0.128
aF0.1317
aF0.1296
aF0.1301
aF0.1298
aF0.1214
aF0.1373
aF0.1326
aF0.13
aF0.1257
aF0.1265
aF0.1363
aF0.1324
aF0.1283
aF0.1313
aF0.1247
aF0.1349
aF0.129
aF0.1299
aF0.1233
aF0.1186
aF0.133
aF0.1268
aF0.1291
aF0.125
aF0.1223
aF0.1244
aF0.1267
aF0.1291
aF0.1214
aF0.1231
aF0.1352
aF0.1342
aF0.1234
aF0.1293
aF0.1188
aF0.1343
aF0.1284
aF0.1211
aF0.1209
aF0.1288
aF0.132
aF0.1263
aF0.1206
aF0.1256
aF0.1182
aF0.1333
aF0.1222
aF0.1239
aF0.123
aF0.1171
aF0.1275
aF0.1278
aF0.1251
aF0.1311
aF0.1211
aF0.1265
aF0.1282
aF0.122
aF0.1231
aF0.1171
aF0.1279
aF0.121
aF0.1227
aF0.1214
aF0.1185
aF0.1304
aF0.1228
aF0.1193
aF0.1157
aF0.117
aF0.1241
aF0.1303
aF0.1181
aF0.1201
aF0.1188
aF0.1236
aF0.1254
aF0.1211
aF0.1241
aF0.114
aF0.1294
aF0.123
aF0.1168
aF0.1167
aF0.1174
aF0.1287
aF0.1243
aF0.1222
aF0.1223
aF0.1193
aF0.1237
aF0.1207
aF0.1166
aF0.1247
aF0.1156
aF0.1208
aF0.12
aF0.1252
aF0.1219
aF0.1154
aF0.1246
aF0.118
aF0.1147
aF0.1176
aF0.1121
aF0.1208
aF0.121
aF0.1214
aF0.1125
aF0.1159
aF0.1177
aF0.1187
aF0.1166
aF0.1202
aF0.112
aF0.122
aF0.1204
aF0.1191
aF0.1246
aF0.1119
aF0.1128
aF0.1219
aF0.1137
aF0.1169
aF0.1119
aF0.1126
aF0.1166
aF0.1172
aF0.1212
aF0.1116
aF0.1185
aF0.12
aF0.109
aF0.1244
aF0.114
aF0.1183
aF0.114
aF0.117
aF0.117
aF0.1115
aF0.12
aF0.1152
aF0.1141
aF0.1168
aF0.1111
aF0.125
aF0.1161
aF0.1131
aF0.1122
aF0.1082
aF0.119
aF0.1169
aF0.115
aF0.1166
aF0.1201
aF0.1258
aF0.1158
aF0.1122
aF0.1192
aF0.1066
aF0.1209
aF0.1091
aF0.1083
aF0.1131
aF0.1128
aF0.1177
aF0.1099
aF0.1136
aF0.12
aF0.1116
aF0.1162
aF0.1137
aF0.1146
aF0.1166
aF0.1098
aF0.1171
aF0.1167
aF0.1621
aF0.111
aF0.0984
aF0.1023
aF0.0908
aF0.0945
aF0.0965
aF0.0903
aF0.0921
aF0.0867
aF0.0882
aF0.0869
aF0.0847
aF0.0855
aF0.0837
aF0.0871
aF0.0887
aF0.0817
aF0.0832
aF0.0817
aF0.0871
aF0.0832
aF0.0848
aF0.0845
aF0.0826
aF0.085
aF0.0851
aF0.0776
aF0.0875
aF0.0786
aF0.0821
aF0.0855
aF0.0789
aF0.0836
aF0.0825
aF0.0815
aF0.0823
aF0.0747
aF0.0827
aF0.0789
aF0.077
aF0.0826
aF0.0719
aF0.0815
aF0.0777
aF0.0845
aF0.0777
aF0.0759
aF0.0818
aF0.0764
aF0.0776
aF0.0788
aF0.075
aF0.0837
aF0.0761
aF0.0757
aF0.0742
aF0.0724
aF0.0769
aF0.0748
aF0.0769
aF0.077
aF0.0745
aF0.0761
aF0.0757
aF0.0801
aF0.0769
aF0.0735
aF0.0809
aF0.0769
aF0.0751
aF0.0774
aF0.0757
aF0.0838
aF0.075
aF0.075
aF0.0721
aF0.0717
aF0.0766
aF0.0774
aF0.078
aF0.0764
aF0.0697
aF0.0775
aF0.0754
aF0.0724
aF0.0742
aF0.0673
aF0.0775
aF0.0748
aF0.0781
aF0.075
aF0.0713
aF0.0795
aF0.0743
aF0.0696
aF0.0743
aF0.0716
aF0.0741
aF0.0718
aF0.0751
aF0.072
aF0.0746
aF0.0767
aF0.0736
aF0.0694
aF0.0724
aF0.0706
aF0.0773
aF0.0724
aF0.0694
aF0.071
aF0.0722
aF0.0744
aF0.0697
aF0.0709
aF0.0742
aF0.0709
aF0.0762
aF0.0746
aF0.0678
aF0.0756
aF0.0705
aF0.0755
aF0.0674
aF0.0726
aF0.0728
aF0.0702
aF0.071
aF0.0678
a.